(lp0
I530
aI493
aI311
aI311
aI311
aI305
aI304
aI278
aI273
aI273
aI273
aI260
aI233
aI233
aI233
aI227
aI227
aI227
aI223
aI219
aI218
aI218
aI218
aI208
aI208
aI208
aI206
aI202
aI202
aI191
aI191
aI190
aI190
aI190
aI188
aI188
aI188
aI188
aI185
aI184
aI184
aI184
aI183
aI165
aI165
aI165
aI165
aI163
aI163
aI163
aI163
aI154
aI154
aI153
aI153
aI150
aI149
aI149
aI149
aI149
aI149
aI147
aI147
aI146
aI145
aI145
aI145
aI145
aI145
aI145
aI145
aI143
aI143
aI143
aI142
aI142
aI142
aI142
aI142
aI142
aI142
aI142
aI137
aI137
aI137
aI137
aI137
aI137
aI137
aI136
aI136
aI136
aI136
aI136
aI136
aI136
aI136
aI136
aI136
aI135
aI134
aI134
aI133
aI133
aI133
aI133
aI133
aI133
aI133
aI133
aI117
aI117
aI117
aI117
aI117
aI117
aI117
aI117
aI117
aI117
aI117
aI117
aI117
aI116
aI116
aI116
aI116
aI116
aI116
aI116
aI116
aI116
aI116
aI116
aI116
aI116
aI116
aI116
aI116
aI116
aI116
aI116
aI116
aI116
a.