(lp0
I530
aI532
aI418
aI532
aI531
aI417
aI416
aI408
aI550
aI413
aI403
aI454
aI452
aI521
aI463
aI494
aI488
aI484
aI393
aI567
aI531
aI420
aI434
aI408
aI527
aI539
aI377
aI531
aI529
aI322
aI549
aI548
aI575
aI522
aI406
aI476
aI403
aI420
aI445
aI453
aI525
aI532
aI446
aI384
aI539
aI535
aI570
aI395
aI529
aI535
aI376
aI363
aI583
aI497
aI569
aI479
aI328
aI488
aI476
aI487
aI529
aI327
aI332
aI389
aI537
aI377
aI487
aI376
aI381
aI324
aI536
aI474
aI500
aI567
aI371
aI405
aI523
aI391
aI529
aI418
aI497
aI383
aI526
aI555
aI582
aI531
aI538
aI528
aI528
aI406
aI528
aI572
aI571
aI468
aI473
aI552
aI542
aI482
aI479
aI459
aI479
aI389
aI537
aI379
aI324
aI537
aI532
aI529
aI562
aI553
aI361
aI553
aI465
aI525
aI545
aI546
aI550
aI568
aI549
aI549
aI549
aI553
aI549
aI547
aI324
aI536
aI536
aI469
aI469
aI527
aI419
aI393
aI489
aI557
aI329
aI543
aI534
aI409
aI532
aI530
aI541
aI395
aI320
aI333
a.