(lp0
(lp1
S'rxn00265_c'
p2
aI39
aa(lp3
S'DM_cpd00907_c'
p4
aI1
aa(lp5
S'rxn05746_c'
p6
aI0
aa(lp7
S'rxn00603_c'
p8
aI0
aa(lp9
S'rxn00929_c'
p10
aI11
aa(lp11
S'rxn00547_c'
p12
aI22
aa(lp13
S'rxn00146_c'
p14
aI94
aa(lp15
S'EX_cpd00067_e'
p16
aI99
aa(lp17
S'DM_cpd00011_c'
p18
aI0
aa(lp19
S'DM_cpd00016_c'
p20
aI57
aa(lp21
S'rxn00545_c'
p22
aI3
aa(lp23
S'rxn00229_c'
p24
aI39
aa(lp25
S'rxn01333_c'
p26
aI47
aa(lp27
S'rxn01331_c'
p28
aI0
aa(lp29
S'rxn14091_c'
p30
aI77
aa(lp31
S'rxn01302_c'
p32
aI0
aa(lp33
S'rxn01280_c'
p34
aI5
aa(lp35
S'rxn00747_c'
p36
aI23
aa(lp37
S'rxn00162_c'
p38
aI17
aa(lp39
S'rxn05938_c'
p40
aI96
aa(lp41
S'rxn01116_c'
p42
aI22
aa(lp43
S'rxn00145_c'
p44
aI16
aa(lp45
S'rxn05147_c'
p46
aI26
aa(lp47
S'rxn08933_c'
p48
aI0
aa(lp49
S'rxn00777_c'
p50
aI47
aa(lp51
S'rxn01171_c'
p52
aI0
aa(lp53
S'rxn01187_c'
p54
aI52
aa(lp55
S'rxn03886_c'
p56
aI0
aa(lp57
S'rxn00225_c'
p58
aI0
aa(lp59
S'rxn05145_c'
p60
aI58
aa(lp61
S'rxn01106_c'
p62
aI38
aa(lp63
S'rxn00786_c'
p64
aI3
aa(lp65
S'rxn00613_c'
p66
aI22
aa(lp67
S'DM_cpd00075_c'
p68
aI94
aa(lp69
S'rxn08934_c'
p70
aI0
aa(lp71
S'rxn00223_c'
p72
aI22
aa(lp73
S'rxn05466_c'
p74
aI96
aa(lp75
S'rxn01132_c'
p76
aI0
aa(lp77
S'EX_cpd00013_e'
p78
aI96
aa(lp79
S'EX_cpd00009_e'
p80
aI58
aa(lp81
S'rxn00148_c'
p82
aI56
aa(lp83
S'rxn00500_c'
p84
aI99
aa(lp85
S'rxn01301_c'
p86
aI0
aa(lp87
S'rxn08936_c'
p88
aI0
aa(lp89
S'rxn06874_c'
p90
aI67
aa(lp91
S'rxn00113_c'
p92
aI8
aa(lp93
S'rxn08127_c'
p94
aI0
aa(lp95
S'EX_cpd00137_e'
p96
aI96
aa(lp97
S'rxn05638_c'
p98
aI15
aa(lp99
S'rxn01169_c'
p100
aI0
aa(lp101
S'rxn00779_c'
p102
aI0
aa(lp103
S'rxn08659_c'
p104
aI44
aa(lp105
S'rxn10042_c'
p106
aI30
aa(lp107
S'rxn05144_c'
p108
aI57
aa(lp109
S'rxn01967_c'
p110
aI0
aa(lp111
S'rxn01100_c'
p112
aI38
aa(lp113
S'rxn01200_c'
p114
aI47
aa(lp115
S'rxn00187_c'
p116
aI57
aa(lp117
S'rxn03978_c'
p118
aI94
aa(lp119
S'rxn00604_c'
p120
aI99
aa(lp121
S'rxn05211_c'
p122
aI96
aa(lp123
S'rxn00931_c'
p124
aI11
aa(lp125
S'rxn00499_c'
p126
aI21
aa(lp127
S'rxn01476_c'
p128
aI99
aa(lp129
S'rxn00247_c'
p130
aI92
aa(lp131
S'rxn00611_c'
p132
aI71
aa(lp133
S'rxn10945_c'
p134
aI15
aa(lp135
S'rxn00173_c'
p136
aI52
aa(lp137
S'rxn01281_c'
p138
aI5
aa(lp139
S'rxn11040_c'
p140
aI60
aa(lp141
S'rxn08935_c'
p142
aI0
aa(lp143
S'rxn00459_c'
p144
aI38
aa(lp145
S'rxn01215_c'
p146
aI1
aa(lp147
S'DM_cpd00528_c'
p148
aI67
aa(lp149
S'rxn00705_c'
p150
aI1
aa(lp151
S'rxn05578_c'
p152
aI1
aa(lp153
S'DM_cpd00007_c'
p154
aI2
aa(lp155
S'rxn00548_c'
p156
aI48
aa(lp157
S'DM_cpd15494_c'
p158
aI0
aa(lp159
S'rxn00082_c'
p160
aI77
aa(lp161
S'rxn00558_c'
p162
aI28
aa(lp163
S'DM_cpd03606_c'
p164
aI0
aa(lp165
S'rxn05226_c'
p166
aI99
aa(lp167
S'rxn00216_c'
p168
aI3
aa(lp169
S'DM_cpd00146_c'
p170
aI8
aa(lp171
S'rxn00623_c'
p172
aI6
aa(lp173
S'DM_cpd00221_c'
p174
aI99
aa(lp175
S'rxn02939_c'
p176
aI0
aa(lp177
S'rxn00058_c'
p178
aI39
aa(lp179
S'rxn03884_c'
p180
aI78
aa(lp181
S'rxn06990_c'
p182
aI0
aa(lp183
S'rxn05158_c'
p184
aI1
aa(lp185
S'rxn05893_c'
p186
aI77
aa(lp187
S'rxn01477_c'
p188
aI78
aa(lp189
S'rxn07200_c'
p190
aI67
aa(lp191
S'rxn00748_c'
p192
aI44
aa(lp193
S'rxn00251_c'
p194
aI2
aa(lp195
S'rxn00781_c'
p196
aI38
aa(lp197
S'EX_cpd00027_e'
p198
aI99
aa(lp199
S'rxn00257_c'
p200
aI96
aa(lp201
S'rxn01057_c'
p202
aI2
aa(lp203
S'rxn05902_c'
p204
aI6
aa(lp205
S'rxn00612_c'
p206
aI69
aa.