(lp0
(lp1
S'rxn00265_c'
p2
aI41
aa(lp3
S'DM_cpd00907_c'
p4
aI1
aa(lp5
S'rxn05746_c'
p6
aI0
aa(lp7
S'rxn00929_c'
p8
aI8
aa(lp9
S'rxn00603_c'
p10
aI0
aa(lp11
S'rxn12188_c'
p12
aI8
aa(lp13
S'rxn00547_c'
p14
aI22
aa(lp15
S'rxn00146_c'
p16
aI88
aa(lp17
S'EX_cpd00067_e'
p18
aI99
aa(lp19
S'DM_cpd00011_c'
p20
aI0
aa(lp21
S'DM_cpd00016_c'
p22
aI41
aa(lp23
S'rxn00545_c'
p24
aI9
aa(lp25
S'rxn00229_c'
p26
aI41
aa(lp27
S'rxn01333_c'
p28
aI34
aa(lp29
S'rxn01331_c'
p30
aI0
aa(lp31
S'rxn14091_c'
p32
aI68
aa(lp33
S'rxn01302_c'
p34
aI0
aa(lp35
S'rxn01169_c'
p36
aI0
aa(lp37
S'rxn00747_c'
p38
aI35
aa(lp39
S'rxn00162_c'
p40
aI13
aa(lp41
S'rxn02939_c'
p42
aI0
aa(lp43
S'rxn01116_c'
p44
aI22
aa(lp45
S'rxn00145_c'
p46
aI11
aa(lp47
S'rxn05147_c'
p48
aI33
aa(lp49
S'rxn08933_c'
p50
aI0
aa(lp51
S'rxn00777_c'
p52
aI34
aa(lp53
S'rxn01171_c'
p54
aI0
aa(lp55
S'rxn01187_c'
p56
aI43
aa(lp57
S'rxn03886_c'
p58
aI0
aa(lp59
S'rxn00225_c'
p60
aI0
aa(lp61
S'rxn05145_c'
p62
aI42
aa(lp63
S'rxn01106_c'
p64
aI28
aa(lp65
S'rxn00786_c'
p66
aI9
aa(lp67
S'rxn00613_c'
p68
aI16
aa(lp69
S'DM_cpd00075_c'
p70
aI88
aa(lp71
S'rxn08934_c'
p72
aI0
aa(lp73
S'rxn00223_c'
p74
aI30
aa(lp75
S'rxn05466_c'
p76
aI89
aa(lp77
S'rxn01132_c'
p78
aI0
aa(lp79
S'EX_cpd00013_e'
p80
aI89
aa(lp81
S'EX_cpd00009_e'
p82
aI42
aa(lp83
S'rxn00148_c'
p84
aI55
aa(lp85
S'rxn01870_c'
p86
aI8
aa(lp87
S'rxn00500_c'
p88
aI100
aa(lp89
S'rxn01301_c'
p90
aI0
aa(lp91
S'rxn08936_c'
p92
aI0
aa(lp93
S'rxn06874_c'
p94
aI68
aa(lp95
S'rxn00113_c'
p96
aI6
aa(lp97
S'rxn08127_c'
p98
aI0
aa(lp99
S'EX_cpd00137_e'
p100
aI89
aa(lp101
S'rxn00083_c'
p102
aI18
aa(lp103
S'rxn05638_c'
p104
aI38
aa(lp105
S'rxn01282_c'
p106
aI8
aa(lp107
S'rxn01280_c'
p108
aI4
aa(lp109
S'rxn00779_c'
p110
aI0
aa(lp111
S'rxn08659_c'
p112
aI59
aa(lp113
S'rxn10042_c'
p114
aI22
aa(lp115
S'rxn05144_c'
p116
aI41
aa(lp117
S'rxn01967_c'
p118
aI0
aa(lp119
S'rxn00604_c'
p120
aI90
aa(lp121
S'rxn00187_c'
p122
aI41
aa(lp123
S'rxn03978_c'
p124
aI88
aa(lp125
S'rxn01100_c'
p126
aI28
aa(lp127
S'rxn05211_c'
p128
aI89
aa(lp129
S'rxn00931_c'
p130
aI8
aa(lp131
S'rxn00499_c'
p132
aI15
aa(lp133
S'rxn08126_c'
p134
aI0
aa(lp135
S'rxn01476_c'
p136
aI90
aa(lp137
S'rxn00247_c'
p138
aI67
aa(lp139
S'rxn00611_c'
p140
aI52
aa(lp141
S'rxn10945_c'
p142
aI38
aa(lp143
S'rxn00173_c'
p144
aI44
aa(lp145
S'rxn01281_c'
p146
aI4
aa(lp147
S'rxn11040_c'
p148
aI50
aa(lp149
S'rxn08935_c'
p150
aI0
aa(lp151
S'rxn00459_c'
p152
aI36
aa(lp153
S'rxn01215_c'
p154
aI1
aa(lp155
S'DM_cpd00528_c'
p156
aI68
aa(lp157
S'rxn00705_c'
p158
aI1
aa(lp159
S'rxn05578_c'
p160
aI1
aa(lp161
S'rxn01200_c'
p162
aI34
aa(lp163
S'rxn00548_c'
p164
aI35
aa(lp165
S'DM_cpd15494_c'
p166
aI0
aa(lp167
S'rxn00082_c'
p168
aI68
aa(lp169
S'rxn00558_c'
p170
aI21
aa(lp171
S'DM_cpd03606_c'
p172
aI0
aa(lp173
S'rxn05226_c'
p174
aI91
aa(lp175
S'rxn00216_c'
p176
aI2
aa(lp177
S'DM_cpd00146_c'
p178
aI6
aa(lp179
S'rxn00623_c'
p180
aI5
aa(lp181
S'DM_cpd00221_c'
p182
aI100
aa(lp183
S'rxn05938_c'
p184
aI89
aa(lp185
S'rxn00058_c'
p186
aI29
aa(lp187
S'DM_cpd00007_c'
p188
aI1
aa(lp189
S'rxn03884_c'
p190
aI69
aa(lp191
S'rxn06990_c'
p192
aI0
aa(lp193
S'rxn05158_c'
p194
aI1
aa(lp195
S'rxn05893_c'
p196
aI68
aa(lp197
S'rxn01477_c'
p198
aI69
aa(lp199
S'rxn07200_c'
p200
aI68
aa(lp201
S'rxn01286_c'
p202
aI8
aa(lp203
S'rxn00748_c'
p204
aI59
aa(lp205
S'rxn00251_c'
p206
aI20
aa(lp207
S'rxn00781_c'
p208
aI28
aa(lp209
S'EX_cpd00027_e'
p210
aI100
aa(lp211
S'rxn00257_c'
p212
aI89
aa(lp213
S'rxn00612_c'
p214
aI50
aa(lp215
S'rxn05902_c'
p216
aI5
aa(lp217
S'rxn01057_c'
p218
aI14
aa.