(dp0
S'220668.9:0.0.9'
p1
(dp2
S'Model_ID'
p3
S'220668.9'
p4
sS'opt_before'
p5
F0.0
sS'active_rxns'
p6
ccopy_reg
_reconstructor
p7
(cpandas.core.frame
DataFrame
p8
c__builtin__
object
p9
Ntp10
Rp11
(dp12
S'_metadata'
p13
(lp14
sS'_typ'
p15
S'dataframe'
p16
sS'_data'
p17
g7
(cpandas.core.internals
BlockManager
p18
g9
Ntp19
Rp20
((lp21
cpandas.core.indexes.base
_new_Index
p22
(cpandas.core.indexes.base
Index
p23
(dp24
S'data'
p25
cnumpy.core.multiarray
_reconstruct
p26
(cnumpy
ndarray
p27
(I0
tp28
S'b'
p29
tp30
Rp31
(I1
(I1
tp32
cnumpy
dtype
p33
(S'O8'
p34
I0
I1
tp35
Rp36
(I3
S'|'
p37
NNNI-1
I-1
I63
tp38
bI00
(lp39
S'fluxes'
p40
atp41
bsS'name'
p42
Nstp43
Rp44
ag22
(g23
(dp45
g25
g26
(g27
(I0
tp46
g29
tp47
Rp48
(I1
(I41
tp49
g36
I00
(lp50
S'rxn00781_c'
p51
aS'rxn05319_c'
p52
aS'rxn00614_c'
p53
aS'rxn05571_c'
p54
aS'rxn05466_c'
p55
aS'rxn05581_c'
p56
aS'rxn00747_c'
p57
aS'rxn10113_c'
p58
aS'rxn00324_c'
p59
aS'rxn05573_c'
p60
aS'rxn01100_c'
p61
aS'rxn00512_c'
p62
aS'rxn10122_c'
p63
aS'rxn00611_c'
p64
aS'rxn00184_c'
p65
aS'rxn01476_c'
p66
aS'rxn01333_c'
p67
aS'rxn00615_c'
p68
aS'rxn01101_c'
p69
aS'rxn00216_c'
p70
aS'rxn00558_c'
p71
aS'rxn01275_c'
p72
aS'rxn05468_c'
p73
aS'rxn09296_c'
p74
aS'rxn01343_c'
p75
aS'rxn00604_c'
p76
aS'rxn02914_c'
p77
aS'rxn05289_c'
p78
aS'EX_cpd00067_e'
p79
aS'EX_cpd00001_e'
p80
aS'EX_cpd00222_e'
p81
aS'EX_cpd00013_e'
p82
aS'EX_cpd00100_e'
p83
aS'EX_cpd00027_e'
p84
aS'EX_cpd00007_e'
p85
aS'EX_cpd00048_e'
p86
aS'DM_cpd00084_c'
p87
aVrxn05651_c
p88
aVrxn08688_c
p89
aVrxn05035_c
p90
aVrxn01334_c
p91
atp92
bsg42
Nstp93
Rp94
a(lp95
g26
(g27
(I0
tp96
g29
tp97
Rp98
(I1
(I1
I41
tp99
g33
(S'f8'
p100
I0
I1
tp101
Rp102
(I3
S'<'
p103
NNNI-1
I-1
I0
tp104
bI00
S' vb\'v\xa2\x85@\x00\x00\x00\x00\x00@\x8f@8\x834H\x83\xd4r@8\x9d\xd8\x89\x9d\xd8|\xc0 vb\'v\xa2\x85@v\xd8\x89\x9d\xd8\tx@\xcc\x13;\xb1\x13;c\xc0,UUUU\xd5d@"i\x90\x06i\xa0\x80@\xca\xff\xff\xff\xff?\x8f@\x1fvb\'v\xa2\x85\xc0\x1di\x90\x06i\xa0\x80\xc0\'UUUU\xd5d@\xd6-\xdf\xf2-o\x85\xc0!vb\'v\xa2\x85\xc08\x9d\xd8\x89\x9d\xd8|@-\xb1\x13;\xb1\xd3\x80\xc0u\xd8\x89\x9d\xd8\tx\xc0 vb\'v\xa2\x85@\xc9\xff\xff\xff\xff?\x8f@-\xb1\x13;\xb1\xd3\x80@9\x9d\xd8\x89\x9d\xd8|\xc0\xff\xff\xff\xff\xff?\x8f\xc08\x834H\x83\xd4r@-\xb1\x13;\xb1\xd3\x80@8\x9d\xd8\x89\x9d\xd8|@ vb\'v\xa2\x85\xc09\x834H\x83\xd4r@\xfd\x9d\xd8\x89\x9d\xd8l\xc0\x00\x00\x00\x00\x00@\x8f@8\x9d\xd8\x89\x9d\xd8|@ vb\'v\xa2\x85\xc0v\xd8\x89\x9d\xd8\tx@\xca\xff\xff\xff\xff?\x8f\xc0\x00\x00\x00\x00\x00@\x8f@ vb\'v\xa2\x85\xc0 vb\'v\xa2\x85@ vb\'v\xa2\x85@ vb\'v\xa2\x85\xc0 vb\'v\xa2\x85@-\xb1\x13;\xb1\xd3\x80@'
p105
tp106
ba(lp107
g22
(g23
(dp108
g25
g26
(g27
(I0
tp109
g29
tp110
Rp111
(I1
(I1
tp112
g36
I00
(lp113
g40
atp114
bsg42
Nstp115
Rp116
a(dp117
S'0.14.1'
p118
(dp119
S'axes'
p120
g21
sS'blocks'
p121
(lp122
(dp123
S'mgr_locs'
p124
c__builtin__
slice
p125
(I0
I1
I1
tp126
Rp127
sS'values'
p128
g98
sasstp129
bsbsS'gaps_w_flux'
p130
(lp131
(lp132
S'rxn05651_c'
p133
aF0.0215613516152713
aa(lp134
S'rxn05035_c'
p135
aF0.0
aa(lp136
S'rxn01334_c'
p137
aF0.025276721182982728
aasS'demands'
p138
(lp139
sS'gap_avg_like'
p140
cnumpy.core.multiarray
scalar
p141
(g102
S'\xd5v\xab\xe7\x8b\xf9\x8f?'
p142
tp143
Rp144
sS'gaps_filled'
p145
c__builtin__
set
p146
((lp147
g88
ag89
ag90
ag91
atp148
Rp149
sS'path_w_flux'
p150
(lp151
(lp152
g51
aF0.5191220214505604
aa(lp153
g53
aF0.22013316862116666
aa(lp154
g54
aF0.22287311094173126
aa(lp155
g55
aF0.6537482407428824
aa(lp156
g56
aF0.9717800304802943
aa(lp157
g57
aF0.24052218400619058
aa(lp158
g58
aF0.9930266647154689
aa(lp159
g59
aF0.15505323034526253
aa(lp160
g60
aF0.16711061359245097
aa(lp161
g61
aF0.5916669155435752
aa(lp162
g62
aF0.15505323034526253
aa(lp163
g63
aF0.1179088482915993
aa(lp164
g64
aF0.7484405309001277
aa(lp165
g65
aF0.7336237270826534
aa(lp166
g66
aF0.6371698314027111
aa(lp167
g67
aF0.8979633240378723
aa(lp168
g68
aF0.7256203031125679
aa(lp169
g69
aF0.7156196405620668
aa(lp170
g70
aF0.4759403048212528
aa(lp171
g71
aF0.13632578864588127
aa(lp172
g72
aF0.4790450388155571
aa(lp173
g74
aF0.2701245309079547
aa(lp174
g75
aF0.7297578149014129
aa(lp175
g76
aF0.608175981967571
aa(lp176
g77
aF0.7767247721552878
aa(lp177
g78
aF0.5971597609433806
aasS'opt_after'
p178
F692.3076923076915
sS'reactions_w_flux'
p179
(lp180
(lp181
g51
aF0.5191220214505604
aa(lp182
g53
aF0.22013316862116666
aa(lp183
g54
aF0.22287311094173126
aa(lp184
g55
aF0.6537482407428824
aa(lp185
g56
aF0.9717800304802943
aa(lp186
g57
aF0.24052218400619058
aa(lp187
g58
aF0.9930266647154689
aa(lp188
g59
aF0.15505323034526253
aa(lp189
g60
aF0.16711061359245097
aa(lp190
g61
aF0.5916669155435752
aa(lp191
g62
aF0.15505323034526253
aa(lp192
g63
aF0.1179088482915993
aa(lp193
g64
aF0.7484405309001277
aa(lp194
g65
aF0.7336237270826534
aa(lp195
g66
aF0.6371698314027111
aa(lp196
g67
aF0.8979633240378723
aa(lp197
g68
aF0.7256203031125679
aa(lp198
g69
aF0.7156196405620668
aa(lp199
g70
aF0.4759403048212528
aa(lp200
g71
aF0.13632578864588127
aa(lp201
g72
aF0.4790450388155571
aa(lp202
g74
aF0.2701245309079547
aa(lp203
g75
aF0.7297578149014129
aa(lp204
g76
aF0.608175981967571
aa(lp205
g77
aF0.7767247721552878
aa(lp206
g78
aF0.5971597609433806
aa(lp207
S'rxn05651_c'
p208
aF0.0215613516152713
aa(lp209
S'rxn05035_c'
p210
aF0.0
aa(lp211
S'rxn01334_c'
p212
aF0.025276721182982728
aasS'avg_path_like'
p213
g141
(g102
S'\x88\xaf}m\xeb\xfb\xdd?'
p214
tp215
Rp216
sS'Nitrogen'
p217
S'NH3'
p218
sS'path_avg_like'
p219
g141
(g102
S'\xfc\x03\xa52\x0b\xaa\xe0?'
p220
tp221
Rp222
sS'objective'
p223
S'L-Cysteine'
p224
sS'Carbon'
p225
S'D-Glucose'
p226
sS'mets_added'
p227
g146
((lp228
tp229
Rp230
ssS'220668.9:0.0.8'
p231
(dp232
g3
g4
sg5
F0.0
sg6
g7
(g8
g9
Ntp233
Rp234
(dp235
g13
g14
sg15
g16
sg17
g7
(g18
g9
Ntp236
Rp237
((lp238
g22
(g23
(dp239
g25
g26
(g27
(I0
tp240
g29
tp241
Rp242
(I1
(I1
tp243
g36
I00
(lp244
g40
atp245
bsg42
Nstp246
Rp247
ag22
(g23
(dp248
g25
g26
(g27
(I0
tp249
g29
tp250
Rp251
(I1
(I29
tp252
g36
I00
(lp253
S'rxn00545_c'
p254
ag51
ag52
aS'rxn00612_c'
p255
ag55
aS'rxn02380_c'
p256
ag57
ag60
aS'rxn01169_c'
p257
ag61
aS'rxn01967_c'
p258
aS'rxn00606_c'
p259
ag64
aS'rxn01106_c'
p260
aS'rxn10042_c'
p261
ag65
aS'rxn04020_c'
p262
aS'rxn00459_c'
p263
aS'rxn00260_c'
p264
aS'rxn01171_c'
p265
aS'rxn05467_c'
p266
ag79
ag80
ag82
ag84
aS'EX_cpd00011_e'
p267
aS'DM_cpd00041_c'
p268
aVrxn00786_c
p269
aVrxn00251_c
p270
atp271
bsg42
Nstp272
Rp273
a(lp274
g26
(g27
(I0
tp275
g29
tp276
Rp277
(I1
(I1
I29
tp278
g102
I00
S'\xef\xff\xff\xff\xff?o@\xf0\xff\xff\xff\xff?\x7f@\xca\xff\xff\xff\xff?\x7f@\xf0\xff\xff\xff\xff?\x7f@\xee\xff\xff\xff\xff?\x7f@\xef\xff\xff\xff\xff?o@\xef\xff\xff\xff\xff?o\xc0\xf1\xff\xff\xff\xff?o@\xb6\xfe\xff\xff\xff?O\xc0\xef\xff\xff\xff\xff?\x7f\xc0\xcf\xff\xff\xff\xff\x87s@\xcf\xff\xff\xff\xff\x87s\xc0\xf0\xff\xff\xff\xff?\x7f\xc0\xef\xff\xff\xff\xff?\x7f\xc0\xff\xff\xff\xff\xff\x87s\xc0\xee\xff\xff\xff\xff?\x7f\xc0\xcf\xff\xff\xff\xff\x87s@\xf0\xff\xff\xff\xff?\x7f@\xf0\xff\xff\xff\xff?\x7f\xc0\xb6\xfe\xff\xff\xff?O\xc0\xf0\xff\xff\xff\xff?\x7f@\x00\x00\x00\x00\x00@\x8f@\xca\xff\xff\xff\xff?\x7f@\xee\xff\xff\xff\xff?\x7f\xc0\xf1\xff\xff\xff\xff?o\xc0\xf0\xff\xff\xff\xff?\x7f\xc0\xf0\xff\xff\xff\xff?\x7f@\xee\xff\xff\xff\xff?o@\xf0\xff\xff\xff\xff?\x7f\xc0'
p279
tp280
ba(lp281
g22
(g23
(dp282
g25
g26
(g27
(I0
tp283
g29
tp284
Rp285
(I1
(I1
tp286
g36
I00
(lp287
g40
atp288
bsg42
Nstp289
Rp290
a(dp291
g118
(dp292
g120
g238
sg121
(lp293
(dp294
g124
g125
(I0
I1
I1
tp295
Rp296
sg128
g277
sasstp297
bsbsg130
(lp298
(lp299
S'rxn00786_c'
p300
aF0.025276721182982728
aa(lp301
S'rxn00251_c'
p302
aF0.002793330585232272
aasg138
(lp303
sg140
g141
(g102
S'\xe7\xb4]Ie\xbe\x8c?'
p304
tp305
Rp306
sg145
g146
((lp307
g269
ag270
atp308
Rp309
sg150
(lp310
(lp311
g254
aF0.7297578149014129
aa(lp312
g51
aF0.5191220214505604
aa(lp313
g255
aF0.7484405309001277
aa(lp314
g55
aF0.6537482407428824
aa(lp315
g256
aF0.13632578864588127
aa(lp316
g57
aF0.24052218400619058
aa(lp317
g60
aF0.16711061359245097
aa(lp318
g257
aF0.4759403048212528
aa(lp319
g61
aF0.5916669155435752
aa(lp320
g258
aF0.7412135331479476
aa(lp321
g259
aF0.35684399784346865
aa(lp322
g64
aF0.7484405309001277
aa(lp323
g260
aF0.2510839990368638
aa(lp324
g261
aF0.6189340413235531
aa(lp325
g65
aF0.7336237270826534
aa(lp326
g262
aF0.47666515237895574
aa(lp327
g263
aF0.5819488983073209
aa(lp328
g264
aF0.8692059277500511
aa(lp329
g265
aF0.6581562407755815
aasg178
F500.0000000000004
sg179
(lp330
(lp331
g254
aF0.7297578149014129
aa(lp332
g51
aF0.5191220214505604
aa(lp333
g255
aF0.7484405309001277
aa(lp334
g55
aF0.6537482407428824
aa(lp335
g256
aF0.13632578864588127
aa(lp336
g57
aF0.24052218400619058
aa(lp337
g60
aF0.16711061359245097
aa(lp338
g257
aF0.4759403048212528
aa(lp339
g61
aF0.5916669155435752
aa(lp340
g258
aF0.7412135331479476
aa(lp341
g259
aF0.35684399784346865
aa(lp342
g64
aF0.7484405309001277
aa(lp343
g260
aF0.2510839990368638
aa(lp344
g261
aF0.6189340413235531
aa(lp345
g65
aF0.7336237270826534
aa(lp346
g262
aF0.47666515237895574
aa(lp347
g263
aF0.5819488983073209
aa(lp348
g264
aF0.8692059277500511
aa(lp349
g265
aF0.6581562407755815
aa(lp350
S'rxn00786_c'
p351
aF0.025276721182982728
aa(lp352
S'rxn00251_c'
p353
aF0.002793330585232272
aasg213
g141
(g102
S'^ek\x13\xe3x\xdf?'
p354
tp355
Rp356
sg217
g218
sg219
g141
(g102
S'\xe1\xee\xa97cX\xe1?'
p357
tp358
Rp359
sg223
S'L-Aspartate'
p360
sg225
g226
sg227
g146
((lp361
tp362
Rp363
ssS'220668.9:0.0.7'
p364
(dp365
g3
g4
sg5
F0.0
sg6
g7
(g8
g9
Ntp366
Rp367
(dp368
g13
g14
sg15
g16
sg17
g7
(g18
g9
Ntp369
Rp370
((lp371
g22
(g23
(dp372
g25
g26
(g27
(I0
tp373
g29
tp374
Rp375
(I1
(I1
tp376
g36
I00
(lp377
g40
atp378
bsg42
Nstp379
Rp380
ag22
(g23
(dp381
g25
g26
(g27
(I0
tp382
g29
tp383
Rp384
(I1
(I46
tp385
g36
I00
(lp386
S'rxn00001_c'
p387
ag51
ag52
ag53
aS'rxn00340_c'
p388
ag255
ag54
ag55
ag256
ag60
aS'rxn01013_c'
p389
ag61
aS'rxn00173_c'
p390
ag258
aS'rxn01116_c'
p391
ag259
ag260
ag261
aS'rxn00548_c'
p392
ag65
ag66
ag67
ag262
ag263
ag264
aS'rxn01187_c'
p393
ag70
aS'rxn01200_c'
p394
ag72
aS'rxn01011_c'
p395
aS'rxn01975_c'
p396
ag76
ag266
ag79
ag80
ag81
ag82
ag84
ag267
aS'DM_cpd00132_c'
p397
aVrxn00777_c
p398
aVrxn09466_c
p399
aVrxn00097_c
p400
aVrxn09447_c
p401
ag270
aS'DM_cpd15270_c'
p402
atp403
bsg42
Nstp404
Rp405
a(lp406
g26
(g27
(I0
tp407
g29
tp408
Rp409
(I1
(I1
I46
tp410
g102
I00
S'mB{\t\xed%g@]\x1c\xc7q\x1c\xc7k@&{\t\xed%4\x80@?h/\xa1\xbd\x84r@]\x1c\xc7q\x1c\xc7k@?h/\xa1\xbd\x84r\xc07{\t\xed%4\x80\xc0[\x1c\xc7q\x1c\xc7{@_\x1c\xc7q\x1c\xc7k@OB{\t\xed%\x87@Bh/\xa1\xbd\x84R\xc0]\x1c\xc7q\x1c\xc7k\xc0HUUUU\xd5t\xc0\xdc\x12\xdaKh\x1f\x85@`\x1c\xc7q\x1c\xc7[@\xdc\x12\xdaKh\x1f\x85\xc0^\x1c\xc7q\x1c\xc7k\xc0\x8c\xe38\x8e\xe3\x18s\xc0_\x1c\xc7q\x1c\xc7[@\\\x1c\xc7q\x1c\xc7k\xc07{\t\xed%4\x80@_\x1c\xc7q\x1c\xc7[\xc0\xdc\x12\xdaKh\x1f\x85@^\x1c\xc7q\x1c\xc7k@]\x1c\xc7q\x1c\xc7k\xc0`\x1c\xc7q\x1c\xc7k@\x91{\t\xed%4P@`\x1c\xc7q\x1c\xc7[@7{\t\xed%4\x80\xc0Bh/\xa1\xbd\x84R@\x89\x97\xd0^B[|@\x91{\t\xed%4P@]\x1c\xc7q\x1c\xc7k@\x00\x00\x00\x00\x00@\x8f@&{\t\xed%4\x80@7{\t\xed%4\x80@[\x1c\xc7q\x1c\xc7{\xc0OB{\t\xed%\x87\xc0]\x1c\xc7q\x1c\xc7k\xc0]\x1c\xc7q\x1c\xc7k@_\x1c\xc7q\x1c\xc7[@?h/\xa1\xbd\x84B\xc0NB{\t\xed%g@?h/\xa1\xbd\x84B\xc0^\x1c\xc7q\x1c\xc7k\xc0?h/\xa1\xbd\x84B@'
p411
tp412
ba(lp413
g22
(g23
(dp414
g25
g26
(g27
(I0
tp415
g29
tp416
Rp417
(I1
(I1
tp418
g36
I00
(lp419
g40
atp420
bsg42
Nstp421
Rp422
a(dp423
g118
(dp424
g120
g371
sg121
(lp425
(dp426
g124
g125
(I0
I1
I1
tp427
Rp428
sg128
g409
sasstp429
bsbsg130
(lp430
(lp431
S'rxn00777_c'
p432
aF0.7913776374220073
aa(lp433
S'rxn00097_c'
p434
aF0.05310451795135983
aa(lp435
S'rxn00251_c'
p436
aF0.002793330585232272
aasg138
(lp437
g402
asg140
g141
(g102
S'5\x16\x93\xfc@\x13\xd2?'
p438
tp439
Rp440
sg145
g146
((lp441
g398
ag399
ag400
ag401
ag270
ag402
atp442
Rp443
sg150
(lp444
(lp445
g387
aF0.7663259047380242
aa(lp446
g51
aF0.5191220214505604
aa(lp447
g53
aF0.22013316862116666
aa(lp448
g388
aF0.8314807559908424
aa(lp449
g255
aF0.7484405309001277
aa(lp450
g54
aF0.22287311094173126
aa(lp451
g55
aF0.6537482407428824
aa(lp452
g256
aF0.13632578864588127
aa(lp453
g60
aF0.16711061359245097
aa(lp454
g389
aF0.15505323034526253
aa(lp455
g61
aF0.5916669155435752
aa(lp456
g390
aF0.7297596125397976
aa(lp457
g258
aF0.7412135331479476
aa(lp458
g391
aF0.7331256660930605
aa(lp459
g259
aF0.35684399784346865
aa(lp460
g260
aF0.2510839990368638
aa(lp461
g261
aF0.6189340413235531
aa(lp462
g392
aF0.7603672794410494
aa(lp463
g65
aF0.7336237270826534
aa(lp464
g66
aF0.6371698314027111
aa(lp465
g67
aF0.8979633240378723
aa(lp466
g262
aF0.47666515237895574
aa(lp467
g263
aF0.5819488983073209
aa(lp468
g264
aF0.8692059277500511
aa(lp469
g393
aF0.7603672794410494
aa(lp470
g70
aF0.4759403048212528
aa(lp471
g394
aF0.2340700358459846
aa(lp472
g72
aF0.4790450388155571
aa(lp473
g395
aF0.15505323034526253
aa(lp474
g396
aF0.608175981967571
aa(lp475
g76
aF0.608175981967571
aasg178
F222.22222222222345
sg179
(lp476
(lp477
g387
aF0.7663259047380242
aa(lp478
g51
aF0.5191220214505604
aa(lp479
g53
aF0.22013316862116666
aa(lp480
g388
aF0.8314807559908424
aa(lp481
g255
aF0.7484405309001277
aa(lp482
g54
aF0.22287311094173126
aa(lp483
g55
aF0.6537482407428824
aa(lp484
g256
aF0.13632578864588127
aa(lp485
g60
aF0.16711061359245097
aa(lp486
g389
aF0.15505323034526253
aa(lp487
g61
aF0.5916669155435752
aa(lp488
g390
aF0.7297596125397976
aa(lp489
g258
aF0.7412135331479476
aa(lp490
g391
aF0.7331256660930605
aa(lp491
g259
aF0.35684399784346865
aa(lp492
g260
aF0.2510839990368638
aa(lp493
g261
aF0.6189340413235531
aa(lp494
g392
aF0.7603672794410494
aa(lp495
g65
aF0.7336237270826534
aa(lp496
g66
aF0.6371698314027111
aa(lp497
g67
aF0.8979633240378723
aa(lp498
g262
aF0.47666515237895574
aa(lp499
g263
aF0.5819488983073209
aa(lp500
g264
aF0.8692059277500511
aa(lp501
g393
aF0.7603672794410494
aa(lp502
g70
aF0.4759403048212528
aa(lp503
g394
aF0.2340700358459846
aa(lp504
g72
aF0.4790450388155571
aa(lp505
g395
aF0.15505323034526253
aa(lp506
g396
aF0.608175981967571
aa(lp507
g76
aF0.608175981967571
aa(lp508
S'rxn00777_c'
p509
aF0.7913776374220073
aa(lp510
S'rxn00097_c'
p511
aF0.05310451795135983
aa(lp512
S'rxn00251_c'
p513
aF0.002793330585232272
aasg213
g141
(g102
S'\x0cM\x8e\x93\xec\x88\xe0?'
p514
tp515
Rp516
sg217
g218
sg219
g141
(g102
S'\nG\xdf\x9d\xa9B\xe1?'
p517
tp518
Rp519
sg223
S'L-Asparagine'
p520
sg225
g226
sg227
g146
((lp521
S'cpd15270_c'
p522
aS'cpd15272_c'
p523
atp524
Rp525
ssS'220668.9:0.0.6'
p526
(dp527
g3
g4
sg5
F0.0
sg6
g7
(g8
g9
Ntp528
Rp529
(dp530
g13
g14
sg15
g16
sg17
g7
(g18
g9
Ntp531
Rp532
((lp533
g22
(g23
(dp534
g25
g26
(g27
(I0
tp535
g29
tp536
Rp537
(I1
(I1
tp538
g36
I00
(lp539
g40
atp540
bsg42
Nstp541
Rp542
ag22
(g23
(dp543
g25
g26
(g27
(I0
tp544
g29
tp545
Rp546
(I1
(I38
tp547
g36
I00
(lp548
S'rxn00179_c'
p549
ag52
ag255
ag54
ag55
ag58
ag60
ag257
ag258
ag259
aS'rxn00113_c'
p550
ag64
ag261
ag65
ag66
ag262
ag72
ag396
aS'rxn02373_c'
p551
ag73
ag265
aS'rxn01019_c'
p552
ag79
ag80
ag81
ag82
ag84
ag85
aS'EX_cpd00137_e'
p553
aS'DM_cpd00051_c'
p554
aVrxn00467_c
p555
aVrxn05211_c
p556
aVrxn00399_c
p557
aVrxn00505_c
p558
aVrxn13647_c
p559
aVrxn03990_c
p560
aVrxn14184_c
p561
aVrxn00973_c
p562
atp563
bsg42
Nstp564
Rp565
a(lp566
g26
(g27
(I0
tp567
g29
tp568
Rp569
(I1
(I1
I38
tp570
g102
I00
S'\xce\x00\x00\x00\x00@o@\x9a\x00\x00\x00\x00p\x87@\x9b\x00\x00\x00\x00pw@\xcc\x00\x00\x00\x00@o\xc0\xcc\x00\x00\x00\x00@\x8f@\x9a\x00\x00\x00\x00p\x87@\xcb\x00\x00\x00\x00@o@z\x00\x00\x00\x00\x88c\xc0\xa3\x00\x00\x00\x00dy@\xa3\x00\x00\x00\x00dy\xc0\xcd\x00\x00\x00\x00@o@\x9b\x00\x00\x00\x00pw\xc0\x8d\x00\x00\x00\x00|u@\xcc\x00\x00\x00\x00@\x7f\xc0\xcb\x00\x00\x00\x00@o@\xa3\x00\x00\x00\x00dy@\xcd\x00\x00\x00\x00@o\xc0\xcb\x00\x00\x00\x00@o@\xce\x00\x00\x00\x00@o@\xc6\x00\x00\x00\x00@_\xc0z\x00\x00\x00\x00\x88c\xc0\xcc\x00\x00\x00\x00@o@\xd2\x00\x00\x00\x00@o@\x9a\x00\x00\x00\x00p\x87@\xcc\x00\x00\x00\x00@o@\xcc\x00\x00\x00\x00@\x8f\xc0\xcb\x00\x00\x00\x00@o\xc0\xc7\x00\x00\x00\x00@_@\xcc\x00\x00\x00\x00@o\xc0\xcd\x00\x00\x00\x00@o@\xcc\x00\x00\x00\x00@o\xc0\xcc\x00\x00\x00\x00@o@\xcc\x00\x00\x00\x00@_\xc0\xcc\x00\x00\x00\x00@o@\xcc\x00\x00\x00\x00@o\xc0\xcc\x00\x00\x00\x00@_\xc0\xcc\x00\x00\x00\x00@_@\xcc\x00\x00\x00\x00@o@'
p571
tp572
ba(lp573
g22
(g23
(dp574
g25
g26
(g27
(I0
tp575
g29
tp576
Rp577
(I1
(I1
tp578
g36
I00
(lp579
g40
atp580
bsg42
Nstp581
Rp582
a(dp583
g118
(dp584
g120
g533
sg121
(lp585
(dp586
g124
g125
(I0
I1
I1
tp587
Rp588
sg128
g569
sasstp589
bsbsg130
(lp590
(lp591
S'rxn00467_c'
p592
aF0.41707777415492975
aa(lp593
S'rxn05211_c'
p594
aF0.0
aa(lp595
S'rxn00505_c'
p596
aF0.0
aa(lp597
S'rxn03990_c'
p598
aF0.0
aa(lp599
S'rxn00973_c'
p600
aF0.0
aasg138
(lp601
sg140
g141
(g102
S'8\x0e\xfa\xc7\xb8Z\xb5?'
p602
tp603
Rp604
sg145
g146
((lp605
g555
ag556
ag557
ag558
ag559
ag560
ag561
ag562
atp606
Rp607
sg150
(lp608
(lp609
g549
aF0.737071802475877
aa(lp610
g255
aF0.7484405309001277
aa(lp611
g54
aF0.22287311094173126
aa(lp612
g55
aF0.6537482407428824
aa(lp613
g58
aF0.9930266647154689
aa(lp614
g60
aF0.16711061359245097
aa(lp615
g257
aF0.4759403048212528
aa(lp616
g258
aF0.7412135331479476
aa(lp617
g259
aF0.35684399784346865
aa(lp618
g550
aF0.7170985764696824
aa(lp619
g64
aF0.7484405309001277
aa(lp620
g261
aF0.6189340413235531
aa(lp621
g65
aF0.7336237270826534
aa(lp622
g66
aF0.6371698314027111
aa(lp623
g262
aF0.47666515237895574
aa(lp624
g72
aF0.4790450388155571
aa(lp625
g396
aF0.608175981967571
aa(lp626
g551
aF0.7299713274281023
aa(lp627
g265
aF0.6581562407755815
aa(lp628
g552
aF0.46285363835535864
aasg178
F249.99999999999955
sg179
(lp629
(lp630
g549
aF0.737071802475877
aa(lp631
g255
aF0.7484405309001277
aa(lp632
g54
aF0.22287311094173126
aa(lp633
g55
aF0.6537482407428824
aa(lp634
g58
aF0.9930266647154689
aa(lp635
g60
aF0.16711061359245097
aa(lp636
g257
aF0.4759403048212528
aa(lp637
g258
aF0.7412135331479476
aa(lp638
g259
aF0.35684399784346865
aa(lp639
g550
aF0.7170985764696824
aa(lp640
g64
aF0.7484405309001277
aa(lp641
g261
aF0.6189340413235531
aa(lp642
g65
aF0.7336237270826534
aa(lp643
g66
aF0.6371698314027111
aa(lp644
g262
aF0.47666515237895574
aa(lp645
g72
aF0.4790450388155571
aa(lp646
g396
aF0.608175981967571
aa(lp647
g551
aF0.7299713274281023
aa(lp648
g265
aF0.6581562407755815
aa(lp649
g552
aF0.46285363835535864
aa(lp650
S'rxn00467_c'
p651
aF0.41707777415492975
aa(lp652
S'rxn05211_c'
p653
aF0.0
aa(lp654
S'rxn00505_c'
p655
aF0.0
aa(lp656
S'rxn03990_c'
p657
aF0.0
aa(lp658
S'rxn00973_c'
p659
aF0.0
aasg213
g141
(g102
S'\xd8\xafvL\xa3\xb3\xdf?'
p660
tp661
Rp662
sg217
g218
sg219
g141
(g102
S'v]\x8aIp%\xe3?'
p663
tp664
Rp665
sg223
S'L-Arginine'
p666
sg225
g226
sg227
g146
((lp667
S'cpd00260_c'
p668
aS'cpd00418_c'
p669
atp670
Rp671
ssS'220668.9:0.0.5'
p672
(dp673
g3
g4
sg5
F0.0
sg6
g7
(g8
g9
Ntp674
Rp675
(dp676
g13
g14
sg15
g16
sg17
g7
(g18
g9
Ntp677
Rp678
((lp679
g22
(g23
(dp680
g25
g26
(g27
(I0
tp681
g29
tp682
Rp683
(I1
(I1
tp684
g36
I00
(lp685
g40
atp686
bsg42
Nstp687
Rp688
ag22
(g23
(dp689
g25
g26
(g27
(I0
tp690
g29
tp691
Rp692
(I1
(I31
tp693
g36
I00
(lp694
g254
aS'rxn00148_c'
p695
aS'rxn01102_c'
p696
ag51
ag52
aS'rxn01492_c'
p697
ag255
ag55
aS'rxn01280_c'
p698
ag57
ag60
aS'rxn01281_c'
p699
ag61
ag64
ag260
ag261
ag65
ag263
aS'rxn00903_c'
p700
ag68
ag70
ag71
aS'rxn00763_c'
p701
aS'rxn01286_c'
p702
ag79
ag80
ag82
ag84
aS'DM_cpd00035_c'
p703
aVrxn00904_c
p704
aVrxn01870_c
p705
atp706
bsg42
Nstp707
Rp708
a(lp709
g26
(g27
(I0
tp710
g29
tp711
Rp712
(I1
(I1
I31
tp713
g102
I00
S'\x04\x00\x00\x00\x00@\x7f@\xfe\xff\xff\xff\xff?\x8f\xc0\xef\xff\xff\xff\xff\x87\x83@#\x00\x00\x00\x00pw@\x07\x00\x00\x00\x00@\x8f@\x04\x00\x00\x00\x00@\x7f\xc0\x10\x00\x00\x00\x00X\x8b@\x00\x00\x00\x00\x00@\x8f@{\xff\xff\xff\xff?_\xc0$\x00\x00\x00\x00pw\xc0\t\x00\x00\x00\x00@\x7f@{\xff\xff\xff\xff?_@#\x00\x00\x00\x00pw\xc0\x00\x00\x00\x00\x00@\x8f\xc0\xff\xff\xff\xff\xff?\x8f\xc0\x04\x00\x00\x00\x00pw\xc0\x02\x00\x00\x00\x00@\x8f\xc0\x00\x00\x00\x00\x00@\x8f@\xff\xff\xff\xff\xff?\x8f\xc0v\xff\xff\xff\xff?_\xc0\x03\x00\x00\x00\x00@\x7f@\x03\x00\x00\x00\x00@\x7f@w\xff\xff\xff\xff?_@\xf0\xff\xff\xff\xff\x87\x83@\x05\x00\x00\x00\x00@\x8f@\x07\x00\x00\x00\x00@\x8f@\x00\x00\x00\x00\x00@\x8f\xc0\t\x00\x00\x00\x00@\x7f\xc0\xff\xff\xff\xff\xff?\x8f@\xff\xff\xff\xff\xff?\x8f@\x03\x00\x00\x00\x00@\x7f@'
p714
tp715
ba(lp716
g22
(g23
(dp717
g25
g26
(g27
(I0
tp718
g29
tp719
Rp720
(I1
(I1
tp721
g36
I00
(lp722
g40
atp723
bsg42
Nstp724
Rp725
a(dp726
g118
(dp727
g120
g679
sg121
(lp728
(dp729
g124
g125
(I0
I1
I1
tp730
Rp731
sg128
g712
sasstp732
bsbsg130
(lp733
(lp734
S'rxn00904_c'
p735
aF0.08414785849649246
aa(lp736
S'rxn01870_c'
p737
aF0.025276721182982728
aasg138
(lp738
sg140
g141
(g102
S'\x9a\x15\x1a\xcf?\x03\xac?'
p739
tp740
Rp741
sg145
g146
((lp742
g704
ag705
atp743
Rp744
sg150
(lp745
(lp746
g254
aF0.7297578149014129
aa(lp747
g695
aF0.7321378826037916
aa(lp748
g696
aF0.7573252964069241
aa(lp749
g51
aF0.5191220214505604
aa(lp750
g697
aF0.15888293237286769
aa(lp751
g255
aF0.7484405309001277
aa(lp752
g55
aF0.6537482407428824
aa(lp753
g698
aF0.7393325875973646
aa(lp754
g57
aF0.24052218400619058
aa(lp755
g60
aF0.16711061359245097
aa(lp756
g699
aF0.7393325875973646
aa(lp757
g61
aF0.5916669155435752
aa(lp758
g64
aF0.7484405309001277
aa(lp759
g260
aF0.2510839990368638
aa(lp760
g261
aF0.6189340413235531
aa(lp761
g65
aF0.7336237270826534
aa(lp762
g263
aF0.5819488983073209
aa(lp763
g700
aF0.8057022139688257
aa(lp764
g68
aF0.7256203031125679
aa(lp765
g70
aF0.4759403048212528
aa(lp766
g71
aF0.13632578864588127
aa(lp767
g701
aF0.33407902943193785
aa(lp768
g702
aF0.39737340535002535
aasg178
F1000.0000000000008
sg179
(lp769
(lp770
g254
aF0.7297578149014129
aa(lp771
g695
aF0.7321378826037916
aa(lp772
g696
aF0.7573252964069241
aa(lp773
g51
aF0.5191220214505604
aa(lp774
g697
aF0.15888293237286769
aa(lp775
g255
aF0.7484405309001277
aa(lp776
g55
aF0.6537482407428824
aa(lp777
g698
aF0.7393325875973646
aa(lp778
g57
aF0.24052218400619058
aa(lp779
g60
aF0.16711061359245097
aa(lp780
g699
aF0.7393325875973646
aa(lp781
g61
aF0.5916669155435752
aa(lp782
g64
aF0.7484405309001277
aa(lp783
g260
aF0.2510839990368638
aa(lp784
g261
aF0.6189340413235531
aa(lp785
g65
aF0.7336237270826534
aa(lp786
g263
aF0.5819488983073209
aa(lp787
g700
aF0.8057022139688257
aa(lp788
g68
aF0.7256203031125679
aa(lp789
g70
aF0.4759403048212528
aa(lp790
g71
aF0.13632578864588127
aa(lp791
g701
aF0.33407902943193785
aa(lp792
g702
aF0.39737340535002535
aa(lp793
S'rxn00904_c'
p794
aF0.08414785849649246
aa(lp795
S'rxn01870_c'
p796
aF0.025276721182982728
aasg213
g141
(g102
S'\xe1\x87JN/@\xe0?'
p797
tp798
Rp799
sg217
g218
sg219
g141
(g102
S'\xec\x9b\x1a?\xf7\x82\xe1?'
p800
tp801
Rp802
sg223
S'L-Alanine'
p803
sg225
g226
sg227
g146
((lp804
tp805
Rp806
ssS'220668.9:0.0.4'
p807
(dp808
g3
g4
sg5
F0.0
sg6
g7
(g8
g9
Ntp809
Rp810
(dp811
g13
g14
sg15
g16
sg17
g7
(g18
g9
Ntp812
Rp813
((lp814
g22
(g23
(dp815
g25
g26
(g27
(I0
tp816
g29
tp817
Rp818
(I1
(I1
tp819
g36
I00
(lp820
g40
atp821
bsg42
Nstp822
Rp823
ag22
(g23
(dp824
g25
g26
(g27
(I0
tp825
g29
tp826
Rp827
(I1
(I36
tp828
g36
I00
(lp829
g51
ag52
ag53
aS'rxn00692_c'
p830
ag255
ag55
ag58
ag60
ag61
ag63
ag391
ag64
ag392
ag65
ag67
ag393
ag69
ag70
ag71
ag394
ag73
ag74
ag77
ag78
ag266
ag79
ag80
ag82
ag84
ag85
ag267
aS'DM_cpd00033_c'
p831
aVrxn00908_c
p832
ag398
aVrxn00420_c
p833
aVrxn11676_c
p834
atp835
bsg42
Nstp836
Rp837
a(lp838
g26
(g27
(I0
tp839
g29
tp840
Rp841
(I1
(I1
I36
tp842
g102
I00
S'\xb7m\xdb\xb6m\xdbq@"I\x92$IR\x86@\x80$I\x92$\xc9Z@\xb7m\xdb\xb6m\xdbq\xc0\xbem\xdb\xb6m\xdbA\xc0\x00\x00\x00\x00\x00@\x8f@\x9c$I\x92$\xc9j@\xb7m\xdb\xb6m\xdbq@\xb4m\xdb\xb6m\xdbq\xc0\x9c$I\x92$\xc9j@\xb7m\xdb\xb6m\xdba@\xa1m\xdb\xb6m\xdbQ\xc0\xb7m\xdb\xb6m\xdba@\xb9m\xdb\xb6m\xdbq\xc0\xb7m\xdb\xb6m\xdba\xc0\xb7m\xdb\xb6m\xdbq@\xb6m\xdb\xb6m\xdbq@\xb8m\xdb\xb6m\xdbq@\xb8m\xdb\xb6m\xdbq@\xb7m\xdb\xb6m\xdba@\x8d$I\x92$\xc9j@\x80$I\x92$\xc9Z@\xb7m\xdb\xb6m\xdbq\xc0q\xdb\xb6m\xdb\x16t\xc0\xb7m\xdb\xb6m\xdbq@\xff\xff\xff\xff\xff?\x8f@"I\x92$IR\x86@\x00\x00\x00\x00\x00@\x8f\xc0\xb7m\xdb\xb6m\xdbq\xc0\x8e$I\x92$\xc9j\xc0\xb7m\xdb\xb6m\xdbq\xc0\x00\x00\x00\x00\x00@\x8f@\xb7m\xdb\xb6m\xdbq\xc0\xb7m\xdb\xb6m\xdba@\xb8m\xdb\xb6m\xdbq@\x92$I\x92$\xc9z@'
p843
tp844
ba(lp845
g22
(g23
(dp846
g25
g26
(g27
(I0
tp847
g29
tp848
Rp849
(I1
(I1
tp850
g36
I00
(lp851
g40
atp852
bsg42
Nstp853
Rp854
a(dp855
g118
(dp856
g120
g814
sg121
(lp857
(dp858
g124
g125
(I0
I1
I1
tp859
Rp860
sg128
g841
sasstp861
bsbsg130
(lp862
(lp863
S'rxn00908_c'
p864
aF0.0
aa(lp865
S'rxn00777_c'
p866
aF0.7913776374220073
aa(lp867
S'rxn00420_c'
p868
aF0.005626397504920459
aa(lp869
S'rxn11676_c'
p870
aF0.0
aasg138
(lp871
sg140
g141
(g102
S'{Q\x19\x9b\x0e\x81\xc9?'
p872
tp873
Rp874
sg145
g146
((lp875
g832
ag398
ag833
ag834
atp876
Rp877
sg150
(lp878
(lp879
g51
aF0.5191220214505604
aa(lp880
g53
aF0.22013316862116666
aa(lp881
g830
aF0.7070878029535881
aa(lp882
g255
aF0.7484405309001277
aa(lp883
g55
aF0.6537482407428824
aa(lp884
g58
aF0.9930266647154689
aa(lp885
g60
aF0.16711061359245097
aa(lp886
g61
aF0.5916669155435752
aa(lp887
g63
aF0.1179088482915993
aa(lp888
g391
aF0.7331256660930605
aa(lp889
g64
aF0.7484405309001277
aa(lp890
g392
aF0.7603672794410494
aa(lp891
g65
aF0.7336237270826534
aa(lp892
g67
aF0.8979633240378723
aa(lp893
g393
aF0.7603672794410494
aa(lp894
g69
aF0.7156196405620668
aa(lp895
g70
aF0.4759403048212528
aa(lp896
g71
aF0.13632578864588127
aa(lp897
g394
aF0.2340700358459846
aa(lp898
g74
aF0.2701245309079547
aa(lp899
g77
aF0.7767247721552878
aa(lp900
g78
aF0.5971597609433806
aasg178
F1000.0
sg179
(lp901
(lp902
g51
aF0.5191220214505604
aa(lp903
g53
aF0.22013316862116666
aa(lp904
g830
aF0.7070878029535881
aa(lp905
g255
aF0.7484405309001277
aa(lp906
g55
aF0.6537482407428824
aa(lp907
g58
aF0.9930266647154689
aa(lp908
g60
aF0.16711061359245097
aa(lp909
g61
aF0.5916669155435752
aa(lp910
g63
aF0.1179088482915993
aa(lp911
g391
aF0.7331256660930605
aa(lp912
g64
aF0.7484405309001277
aa(lp913
g392
aF0.7603672794410494
aa(lp914
g65
aF0.7336237270826534
aa(lp915
g67
aF0.8979633240378723
aa(lp916
g393
aF0.7603672794410494
aa(lp917
g69
aF0.7156196405620668
aa(lp918
g70
aF0.4759403048212528
aa(lp919
g71
aF0.13632578864588127
aa(lp920
g394
aF0.2340700358459846
aa(lp921
g74
aF0.2701245309079547
aa(lp922
g77
aF0.7767247721552878
aa(lp923
g78
aF0.5971597609433806
aa(lp924
S'rxn00908_c'
p925
aF0.0
aa(lp926
S'rxn00777_c'
p927
aF0.7913776374220073
aa(lp928
S'rxn00420_c'
p929
aF0.005626397504920459
aa(lp930
S'rxn11676_c'
p931
aF0.0
aasg213
g141
(g102
S'd\xe3V`\xe2o\xe0?'
p932
tp933
Rp934
sg217
g218
sg219
g141
(g102
S'\x07\x89\xe5\xc7-D\xe2?'
p935
tp936
Rp937
sg223
S'Glycine'
p938
sg225
g226
sg227
g146
((lp939
tp940
Rp941
ssS'220668.9:0.0.3'
p942
(dp943
g3
g4
sg5
F0.0
sg6
g7
(g8
g9
Ntp944
Rp945
(dp946
g13
g14
sg15
g16
sg17
g7
(g18
g9
Ntp947
Rp948
((lp949
g22
(g23
(dp950
g25
g26
(g27
(I0
tp951
g29
tp952
Rp953
(I1
(I1
tp954
g36
I00
(lp955
g40
atp956
bsg42
Nstp957
Rp958
ag22
(g23
(dp959
g25
g26
(g27
(I0
tp960
g29
tp961
Rp962
(I1
(I32
tp963
g36
I00
(lp964
g51
ag52
ag53
ag255
ag55
ag57
ag58
ag59
ag60
ag61
ag62
ag63
ag64
ag65
ag67
ag69
ag70
ag71
ag73
ag74
ag75
ag77
ag78
ag79
ag80
ag82
ag84
ag85
aS'DM_cpd00550_c'
p965
aVrxn00425_c
p966
ag833
ag91
atp967
bsg42
Nstp968
Rp969
a(lp970
g26
(g27
(I0
tp971
g29
tp972
Rp973
(I1
(I1
I32
tp974
g102
I00
S'\x07\x00\x00\x00\x00@\x8f@\x06\x00\x00\x00\x00@\x8f@\x18\x00\x00\x00\x00pw@\xf3\xff\xff\xff\xff\x87\x83@\xfe\xff\xff\xff\xff?\x8f@\x07\x00\x00\x00\x00@\x7f\xc0\xec\xff\xff\xff\xff?o@\x11\x00\x00\x00\x00p\x87@\xc6\xff\xff\xff\xff?\x7f@\x07\x00\x00\x00\x00@\x8f\xc0\x11\x00\x00\x00\x00p\x87\xc0\xee\xff\xff\xff\xff?o@\x00\x00\x00\x00\x00@\x8f\xc0\x00\x00\x00\x00\x00@\x8f\xc0\x05\x00\x00\x00\x00@\x7f\xc0\x07\x00\x00\x00\x00@\x8f@\xc5\xff\xff\xff\xff?\x7f@\xc5\xff\xff\xff\xff?\x7f@\x13\x00\x00\x00\x00@\x7f@\x19\x00\x00\x00\x00pw@\x05\x00\x00\x00\x00@\x7f@\t\x00\x00\x00\x00@\x8f\xc0\x19\x00\x00\x00\x00pw@\x00\x00\x00\x00\x00@\x8f@\x06\x00\x00\x00\x00@\x8f@\xfe\xff\xff\xff\xff?\x8f\xc0\xc6\xff\xff\xff\xff?\x7f\xc0\x14\x00\x00\x00\x00@\x7f\xc0\x0b\x00\x00\x00\x00@\x8f@\x0b\x00\x00\x00\x00@\x8f@\n\x00\x00\x00\x00@\x8f@\x05\x00\x00\x00\x00@\x7f@'
p975
tp976
ba(lp977
g22
(g23
(dp978
g25
g26
(g27
(I0
tp979
g29
tp980
Rp981
(I1
(I1
tp982
g36
I00
(lp983
g40
atp984
bsg42
Nstp985
Rp986
a(dp987
g118
(dp988
g120
g949
sg121
(lp989
(dp990
g124
g125
(I0
I1
I1
tp991
Rp992
sg128
g973
sasstp993
bsbsg130
(lp994
(lp995
S'rxn00425_c'
p996
aF0.0
aa(lp997
S'rxn00420_c'
p998
aF0.005626397504920459
aa(lp999
S'rxn01334_c'
p1000
aF0.025276721182982728
aasg138
(lp1001
sg140
g141
(g102
S'\x80`J \xb6\x18\x85?'
p1002
tp1003
Rp1004
sg145
g146
((lp1005
g966
ag833
ag91
atp1006
Rp1007
sg150
(lp1008
(lp1009
g51
aF0.5191220214505604
aa(lp1010
g53
aF0.22013316862116666
aa(lp1011
g255
aF0.7484405309001277
aa(lp1012
g55
aF0.6537482407428824
aa(lp1013
g57
aF0.24052218400619058
aa(lp1014
g58
aF0.9930266647154689
aa(lp1015
g59
aF0.15505323034526253
aa(lp1016
g60
aF0.16711061359245097
aa(lp1017
g61
aF0.5916669155435752
aa(lp1018
g62
aF0.15505323034526253
aa(lp1019
g63
aF0.1179088482915993
aa(lp1020
g64
aF0.7484405309001277
aa(lp1021
g65
aF0.7336237270826534
aa(lp1022
g67
aF0.8979633240378723
aa(lp1023
g69
aF0.7156196405620668
aa(lp1024
g70
aF0.4759403048212528
aa(lp1025
g71
aF0.13632578864588127
aa(lp1026
g74
aF0.2701245309079547
aa(lp1027
g75
aF0.7297578149014129
aa(lp1028
g77
aF0.7767247721552878
aa(lp1029
g78
aF0.5971597609433806
aasg178
F1000.0000000000001
sg179
(lp1030
(lp1031
g51
aF0.5191220214505604
aa(lp1032
g53
aF0.22013316862116666
aa(lp1033
g255
aF0.7484405309001277
aa(lp1034
g55
aF0.6537482407428824
aa(lp1035
g57
aF0.24052218400619058
aa(lp1036
g58
aF0.9930266647154689
aa(lp1037
g59
aF0.15505323034526253
aa(lp1038
g60
aF0.16711061359245097
aa(lp1039
g61
aF0.5916669155435752
aa(lp1040
g62
aF0.15505323034526253
aa(lp1041
g63
aF0.1179088482915993
aa(lp1042
g64
aF0.7484405309001277
aa(lp1043
g65
aF0.7336237270826534
aa(lp1044
g67
aF0.8979633240378723
aa(lp1045
g69
aF0.7156196405620668
aa(lp1046
g70
aF0.4759403048212528
aa(lp1047
g71
aF0.13632578864588127
aa(lp1048
g74
aF0.2701245309079547
aa(lp1049
g75
aF0.7297578149014129
aa(lp1050
g77
aF0.7767247721552878
aa(lp1051
g78
aF0.5971597609433806
aa(lp1052
S'rxn00425_c'
p1053
aF0.0
aa(lp1054
S'rxn00420_c'
p1055
aF0.005626397504920459
aa(lp1056
S'rxn01334_c'
p1057
aF0.025276721182982728
aasg213
g141
(g102
S'\x07<P/\tw\xdc?'
p1058
tp1059
Rp1060
sg217
g218
sg219
g141
(g102
S'\xa8\xae\xad \xf77\xe0?'
p1061
tp1062
Rp1063
sg223
S'D-Serine'
p1064
sg225
g226
sg227
g146
((lp1065
tp1066
Rp1067
ssS'220668.9:0.0.2'
p1068
(dp1069
g3
g4
sg5
F0.0
sg6
g7
(g8
g9
Ntp1070
Rp1071
(dp1072
g13
g14
sg15
g16
sg17
g7
(g18
g9
Ntp1073
Rp1074
((lp1075
g22
(g23
(dp1076
g25
g26
(g27
(I0
tp1077
g29
tp1078
Rp1079
(I1
(I1
tp1080
g36
I00
(lp1081
g40
atp1082
bsg42
Nstp1083
Rp1084
ag22
(g23
(dp1085
g25
g26
(g27
(I0
tp1086
g29
tp1087
Rp1088
(I1
(I58
tp1089
g36
I00
(lp1090
S'rxn00337_c'
p1091
ag695
ag51
ag52
ag53
ag255
ag54
ag55
ag256
aS'rxn01301_c'
p1092
aS'rxn01643_c'
p1093
ag57
ag60
ag61
ag258
ag259
ag260
ag261
ag65
ag66
ag67
ag262
ag263
ag264
ag69
ag70
ag71
ag72
ag73
ag75
ag76
ag77
aS'rxn00157_c'
p1094
ag266
ag79
ag80
ag81
ag82
ag84
ag85
ag267
ag86
aS'DM_cpd00637_c'
p1095
aVrxn01350_c
p1096
aVrxn00456_c
p1097
aVrxn00429_c
p1098
aVrxn00737_c
p1099
aVrxn03052_c
p1100
ag89
aVrxn00457_c
p1101
aVrxn12215_c
p1102
ag91
aVrxn00952_c
p1103
aVrxn13143_c
p1104
ag88
ag833
ag270
aVrxn01303_c
p1105
atp1106
bsg42
Nstp1107
Rp1108
a(lp1109
g26
(g27
(I0
tp1110
g29
tp1111
Rp1112
(I1
(I1
I58
tp1113
g102
I00
S'\xb6\xe8\xa2\x8b.\xbaf@\xb5\xe8\xa2\x8b.\xbaf\xc0\x89.\xba\xe8\xa2\x0b\x81@\x8d.\xba\xe8\xa2\x0b\x81@\xb6\xe8\xa2\x8b.\xbaf@\xb4\xe8\xa2\x8b.\xbaf\xc0\xb4\xe8\xa2\x8b.\xba\x86\xc0\xb5\xe8\xa2\x8b.\xbav@\xf3\xff\xff\xff\xff?o@\xb6\xe8\xa2\x8b.\xbaf\xc0\xb6\xe8\xa2\x8b.\xbaf@\x8a.\xba\xe8\xa2\x0bq\xc0\xf9\xff\xff\xff\xff?\x8f@\x89.\xba\xe8\xa2\x0b\x81\xc0\xf9\xff\xff\xff\xff?o@\xf5\xff\xff\xff\xff?o\xc0\xb7\xe8\xa2\x8b.\xbav\xc0\xeb\xff\xff\xff\xff?o\xc0\xb6\xe8\xa2\x8b.\xbav\xc0\xb4\xe8\xa2\x8b.\xba\x86@\x88.\xba\xe8\xa2\x0bq\xc0\xf9\xff\xff\xff\xff?o@\xb6\xe8\xa2\x8b.\xbav@\xb6\xe8\xa2\x8b.\xbaf\xc0\xb5\xe8\xa2\x8b.\xbaf@\xfb\xff\xff\xff\xffo\x87@\xde\xe8\xa2\x8b.\xba6@\xb5\xe8\xa2\x8b.\xba\x86\xc0\xb7\xe8\xa2\x8b.\xba\x86\xc0\x88.\xba\xe8\xa2\x0bq@\xb4\xe8\xa2\x8b.\xba\x86@\xb5\xe8\xa2\x8b.\xbaf\xc0\xb6\xe8\xa2\x8b.\xbaf\xc0\xb6\xe8\xa2\x8b.\xbaf@\x94\xe8\xa2\x8b.\xbav@\x8d.\xba\xe8\xa2\x0b\x81@\xb4\xe8\xa2\x8b.\xba\x86@\xb5\xe8\xa2\x8b.\xbav\xc0\xf9\xff\xff\xff\xff?\x8f\xc0\xb8\xe8\xa2\x8b.\xba\x86@\xb6\xe8\xa2\x8b.\xbaf\xc0\xb6\xe8\xa2\x8b.\xbav\xc0\xb7\xe8\xa2\x8b.\xbav@\xb6\xe8\xa2\x8b.\xbaf\xc0\xb6\xe8\xa2\x8b.\xbaf\xc0\xb6\xe8\xa2\x8b.\xbaf\xc0\xb6\xe8\xa2\x8b.\xbaf@\xb6\xe8\xa2\x8b.\xbaf@\xb6\xe8\xa2\x8b.\xbav\xc0\xb7\xe8\xa2\x8b.\xbav@\xb6\xe8\xa2\x8b.\xbaf@\x88.\xba\xe8\xa2\x0bq@\xb6\xe8\xa2\x8b.\xbaf@\xb6\xe8\xa2\x8b.\xbaf\xc0\xb6\xe8\xa2\x8b.\xbav@\xb6\xe8\xa2\x8b.\xbaf@\xb7\xe8\xa2\x8b.\xbaf\xc0\xb6\xe8\xa2\x8b.\xbaf@'
p1114
tp1115
ba(lp1116
g22
(g23
(dp1117
g25
g26
(g27
(I0
tp1118
g29
tp1119
Rp1120
(I1
(I1
tp1121
g36
I00
(lp1122
g40
atp1123
bsg42
Nstp1124
Rp1125
a(dp1126
g118
(dp1127
g120
g1075
sg121
(lp1128
(dp1129
g124
g125
(I0
I1
I1
tp1130
Rp1131
sg128
g1112
sasstp1132
bsbsg130
(lp1133
(lp1134
S'rxn01350_c'
p1135
aF0.0
aa(lp1136
S'rxn00456_c'
p1137
aF0.0
aa(lp1138
S'rxn00429_c'
p1139
aF0.0
aa(lp1140
S'rxn00737_c'
p1141
aF0.0
aa(lp1142
S'rxn03052_c'
p1143
aF0.0
aa(lp1144
S'rxn00457_c'
p1145
aF0.0
aa(lp1146
S'rxn01334_c'
p1147
aF0.025276721182982728
aa(lp1148
S'rxn00952_c'
p1149
aF0.0059493710811322365
aa(lp1150
S'rxn05651_c'
p1151
aF0.0215613516152713
aa(lp1152
S'rxn00420_c'
p1153
aF0.005626397504920459
aa(lp1154
S'rxn00251_c'
p1155
aF0.002793330585232272
aa(lp1156
S'rxn01303_c'
p1157
aF0.0
aasg138
(lp1158
sg140
g141
(g102
S'\xce\x0e\x85B]\xe4t?'
p1159
tp1160
Rp1161
sg145
g146
((lp1162
g1096
ag1097
ag1098
ag1099
ag1100
ag89
ag1101
ag1102
ag91
ag1103
ag1104
ag88
ag833
ag270
ag1105
atp1163
Rp1164
sg150
(lp1165
(lp1166
g1091
aF0.8333333333333334
aa(lp1167
g695
aF0.7321378826037916
aa(lp1168
g51
aF0.5191220214505604
aa(lp1169
g53
aF0.22013316862116666
aa(lp1170
g255
aF0.7484405309001277
aa(lp1171
g54
aF0.22287311094173126
aa(lp1172
g55
aF0.6537482407428824
aa(lp1173
g256
aF0.13632578864588127
aa(lp1174
g1092
aF0.7165696798161908
aa(lp1175
g1093
aF0.7367584023517918
aa(lp1176
g57
aF0.24052218400619058
aa(lp1177
g60
aF0.16711061359245097
aa(lp1178
g61
aF0.5916669155435752
aa(lp1179
g258
aF0.7412135331479476
aa(lp1180
g259
aF0.35684399784346865
aa(lp1181
g260
aF0.2510839990368638
aa(lp1182
g261
aF0.6189340413235531
aa(lp1183
g65
aF0.7336237270826534
aa(lp1184
g66
aF0.6371698314027111
aa(lp1185
g67
aF0.8979633240378723
aa(lp1186
g262
aF0.47666515237895574
aa(lp1187
g263
aF0.5819488983073209
aa(lp1188
g264
aF0.8692059277500511
aa(lp1189
g69
aF0.7156196405620668
aa(lp1190
g70
aF0.4759403048212528
aa(lp1191
g71
aF0.13632578864588127
aa(lp1192
g72
aF0.4790450388155571
aa(lp1193
g75
aF0.7297578149014129
aa(lp1194
g76
aF0.608175981967571
aa(lp1195
g77
aF0.7767247721552878
aa(lp1196
g1094
aF0.7979364237407149
aasg178
F363.63636363636465
sg179
(lp1197
(lp1198
g1091
aF0.8333333333333334
aa(lp1199
g695
aF0.7321378826037916
aa(lp1200
g51
aF0.5191220214505604
aa(lp1201
g53
aF0.22013316862116666
aa(lp1202
g255
aF0.7484405309001277
aa(lp1203
g54
aF0.22287311094173126
aa(lp1204
g55
aF0.6537482407428824
aa(lp1205
g256
aF0.13632578864588127
aa(lp1206
g1092
aF0.7165696798161908
aa(lp1207
g1093
aF0.7367584023517918
aa(lp1208
g57
aF0.24052218400619058
aa(lp1209
g60
aF0.16711061359245097
aa(lp1210
g61
aF0.5916669155435752
aa(lp1211
g258
aF0.7412135331479476
aa(lp1212
g259
aF0.35684399784346865
aa(lp1213
g260
aF0.2510839990368638
aa(lp1214
g261
aF0.6189340413235531
aa(lp1215
g65
aF0.7336237270826534
aa(lp1216
g66
aF0.6371698314027111
aa(lp1217
g67
aF0.8979633240378723
aa(lp1218
g262
aF0.47666515237895574
aa(lp1219
g263
aF0.5819488983073209
aa(lp1220
g264
aF0.8692059277500511
aa(lp1221
g69
aF0.7156196405620668
aa(lp1222
g70
aF0.4759403048212528
aa(lp1223
g71
aF0.13632578864588127
aa(lp1224
g72
aF0.4790450388155571
aa(lp1225
g75
aF0.7297578149014129
aa(lp1226
g76
aF0.608175981967571
aa(lp1227
g77
aF0.7767247721552878
aa(lp1228
g1094
aF0.7979364237407149
aa(lp1229
S'rxn01350_c'
p1230
aF0.0
aa(lp1231
S'rxn00456_c'
p1232
aF0.0
aa(lp1233
S'rxn00429_c'
p1234
aF0.0
aa(lp1235
S'rxn00737_c'
p1236
aF0.0
aa(lp1237
S'rxn03052_c'
p1238
aF0.0
aa(lp1239
S'rxn00457_c'
p1240
aF0.0
aa(lp1241
S'rxn01334_c'
p1242
aF0.025276721182982728
aa(lp1243
S'rxn00952_c'
p1244
aF0.0059493710811322365
aa(lp1245
S'rxn05651_c'
p1246
aF0.0215613516152713
aa(lp1247
S'rxn00420_c'
p1248
aF0.005626397504920459
aa(lp1249
S'rxn00251_c'
p1250
aF0.002793330585232272
aa(lp1251
S'rxn01303_c'
p1252
aF0.0
aasg213
g141
(g102
S'\x10\x8dR\x16=\xfe\xd9?'
p1253
tp1254
Rp1255
sg217
g218
sg219
g141
(g102
S'\xbb\x97`\xaa\xdc\xf6\xe1?'
p1256
tp1257
Rp1258
sg223
S'D-Methionine'
p1259
sg225
g226
sg227
g146
((lp1260
S'cpd00324_c'
p1261
atp1262
Rp1263
ssS'220668.9:0.0.1'
p1264
(dp1265
g3
g4
sg5
F0.0
sg6
g7
(g8
g9
Ntp1266
Rp1267
(dp1268
g13
g14
sg15
g16
sg17
g7
(g18
g9
Ntp1269
Rp1270
((lp1271
g22
(g23
(dp1272
g25
g26
(g27
(I0
tp1273
g29
tp1274
Rp1275
(I1
(I1
tp1276
g36
I00
(lp1277
g40
atp1278
bsg42
Nstp1279
Rp1280
ag22
(g23
(dp1281
g25
g26
(g27
(I0
tp1282
g29
tp1283
Rp1284
(I1
(I17
tp1285
g36
I00
(lp1286
g52
ag55
aS'rxn08792_c'
p1287
aS'rxn00499_c'
p1288
ag63
ag65
aS'rxn00193_c'
p1289
ag266
ag79
ag80
ag82
ag267
ag553
aS'DM_cpd00186_c'
p1290
aVrxn10946_c
p1291
aVrxn00198_c
p1292
ag562
atp1293
bsg42
Nstp1294
Rp1295
a(lp1296
g26
(g27
(I0
tp1297
g29
tp1298
Rp1299
(I1
(I1
I17
tp1300
g102
I00
S'\x00\x00\x00\x00\x00@\x8f@\x00\x00\x00\x00\x00@\x8f@\xd2m\xdb\xb6m\xdbq@\xd2m\xdb\xb6m\xdbq\xc0\xd2m\xdb\xb6m\xdbq\xc0\t\x00\x00\x00\x00@\x8f\xc0\t\x00\x00\x00\x00@\x8f@\x00\x00\x00\x00\x00@\x8f\xc0.\x00\x00\x00\x00@\x8f\xc0\x00\x00\x00\x00\x00@\x8f@\x00\x00\x00\x00\x00@\x8f\xc0\x00\x00\x00\x00\x00@\x8f@\t\x00\x00\x00\x00@\x8f\xc0\t\x00\x00\x00\x00@\x8f@\x04\x00\x00\x00\x00@\x8f\xc0\x04\x00\x00\x00\x00@\x8f@\x04\x00\x00\x00\x00@\x8f@'
p1301
tp1302
ba(lp1303
g22
(g23
(dp1304
g25
g26
(g27
(I0
tp1305
g29
tp1306
Rp1307
(I1
(I1
tp1308
g36
I00
(lp1309
g40
atp1310
bsg42
Nstp1311
Rp1312
a(dp1313
g118
(dp1314
g120
g1271
sg121
(lp1315
(dp1316
g124
g125
(I0
I1
I1
tp1317
Rp1318
sg128
g1299
sasstp1319
bsbsg130
(lp1320
(lp1321
S'rxn00198_c'
p1322
aF0.0
aa(lp1323
S'rxn00973_c'
p1324
aF0.0
aasg138
(lp1325
sg140
g141
(g102
S'\x00\x00\x00\x00\x00\x00\x00\x00'
p1326
tp1327
Rp1328
sg145
g146
((lp1329
g1291
ag1292
ag562
atp1330
Rp1331
sg150
(lp1332
(lp1333
g55
aF0.6537482407428824
aa(lp1334
g1287
aF0.8302829270557739
aa(lp1335
g1288
aF0.8302829270557739
aa(lp1336
g63
aF0.1179088482915993
aa(lp1337
g65
aF0.7336237270826534
aa(lp1338
g1289
aF0.7588186756212173
aasg178
F1000.0
sg179
(lp1339
(lp1340
g55
aF0.6537482407428824
aa(lp1341
g1287
aF0.8302829270557739
aa(lp1342
g1288
aF0.8302829270557739
aa(lp1343
g63
aF0.1179088482915993
aa(lp1344
g65
aF0.7336237270826534
aa(lp1345
g1289
aF0.7588186756212173
aa(lp1346
S'rxn00198_c'
p1347
aF0.0
aa(lp1348
S'rxn00973_c'
p1349
aF0.0
aasg213
g141
(g102
S'\xda[\xe1\xf1\xb6e\xdf?'
p1350
tp1351
Rp1352
sg217
g218
sg219
g141
(g102
S'<=\x96\xf6y\xee\xe4?'
p1353
tp1354
Rp1355
sg223
S'D-Glutamate'
p1356
sg225
g226
sg227
g146
((lp1357
S'cpd00260_c'
p1358
atp1359
Rp1360
ssS'220668.9:0.0.0'
p1361
(dp1362
g3
g4
sg5
F0.0
sg6
g7
(g8
g9
Ntp1363
Rp1364
(dp1365
g13
g14
sg15
g16
sg17
g7
(g18
g9
Ntp1366
Rp1367
((lp1368
g22
(g23
(dp1369
g25
g26
(g27
(I0
tp1370
g29
tp1371
Rp1372
(I1
(I1
tp1373
g36
I00
(lp1374
g40
atp1375
bsg42
Nstp1376
Rp1377
ag22
(g23
(dp1378
g25
g26
(g27
(I0
tp1379
g29
tp1380
Rp1381
(I1
(I34
tp1382
g36
I00
(lp1383
g695
ag696
ag51
ag52
ag255
ag55
ag698
ag60
ag699
ag61
aS'rxn00187_c'
p1384
ag64
ag260
aS'rxn00412_c'
p1385
ag261
aS'rxn00283_c'
p1386
ag65
aS'rxn00410_c'
p1387
ag67
ag263
ag700
ag68
ag70
ag71
ag701
ag75
ag702
ag79
ag80
ag82
ag84
aS'DM_cpd00117_c'
p1388
ag704
ag91
atp1389
bsg42
Nstp1390
Rp1391
a(lp1392
g26
(g27
(I0
tp1393
g29
tp1394
Rp1395
(I1
(I1
I34
tp1396
g102
I00
S'\xfe\xff\xff\xff\xff?\x8f\xc0\xfe\xff\xff\xff\xff?\x7f@\xfe\xff\xff\xff\xff?\x7f@\x00\x00\x00\x00\x00@\x8f@\x00\x00\x00\x00\x00@\x7f@\x00\x00\x00\x00\x00@\x8f@\xfe\xff\xff\xff\xff?\x7f\xc0\xff\xff\xff\xff\xff?\x7f@\xfe\xff\xff\xff\xff?\x7f@\xfd\xff\xff\xff\xff?\x7f\xc0\xec\xff\xff\xff\xff?_@\x00\x00\x00\x00\x00@\x8f\xc0\xfe\xff\xff\xff\xff?\x8f\xc0\xed\xff\xff\xff\xff?_@\x04\x00\x00\x00\x00pw\xc0\xfe\xff\xff\xff\xff?\x8f@\x00\x00\x00\x00\x00@\x8f\xc0\xed\xff\xff\xff\xff?_\xc0\x03\x00\x00\x00\x00@\x7f\xc0\xfe\xff\xff\xff\xff?\x8f@\xfe\xff\xff\xff\xff?\x8f\xc0\x00\x00\x00\x00\x00@\x7f\xc0\x01\x00\x00\x00\x00@\x7f@\x03\x00\x00\x00\x00@\x7f@\x00\x00\x00\x00\x00@\x7f@\xfe\xff\xff\xff\xff?\x7f@\x00\x00\x00\x00\x00@\x7f@\x07\x00\x00\x00\x00@\x8f@\x00\x00\x00\x00\x00@\x8f@\x00\x00\x00\x00\x00@\x8f\xc0\xff\xff\xff\xff\xff?\x7f\xc0\xfe\xff\xff\xff\xff?\x8f@\xff\xff\xff\xff\xff?\x8f@\xfe\xff\xff\xff\xff?\x7f@'
p1397
tp1398
ba(lp1399
g22
(g23
(dp1400
g25
g26
(g27
(I0
tp1401
g29
tp1402
Rp1403
(I1
(I1
tp1404
g36
I00
(lp1405
g40
atp1406
bsg42
Nstp1407
Rp1408
a(dp1409
g118
(dp1410
g120
g1368
sg121
(lp1411
(dp1412
g124
g125
(I0
I1
I1
tp1413
Rp1414
sg128
g1395
sasstp1415
bsbsg130
(lp1416
(lp1417
S'rxn00904_c'
p1418
aF0.08414785849649246
aa(lp1419
S'rxn01334_c'
p1420
aF0.025276721182982728
aasg138
(lp1421
sg140
g141
(g102
S'\x9a\x15\x1a\xcf?\x03\xac?'
p1422
tp1423
Rp1424
sg145
g146
((lp1425
g704
ag91
atp1426
Rp1427
sg150
(lp1428
(lp1429
g695
aF0.7321378826037916
aa(lp1430
g696
aF0.7573252964069241
aa(lp1431
g51
aF0.5191220214505604
aa(lp1432
g255
aF0.7484405309001277
aa(lp1433
g55
aF0.6537482407428824
aa(lp1434
g698
aF0.7393325875973646
aa(lp1435
g60
aF0.16711061359245097
aa(lp1436
g699
aF0.7393325875973646
aa(lp1437
g61
aF0.5916669155435752
aa(lp1438
g1384
aF0.6839770327156126
aa(lp1439
g64
aF0.7484405309001277
aa(lp1440
g260
aF0.2510839990368638
aa(lp1441
g1385
aF0.7170985764696824
aa(lp1442
g261
aF0.6189340413235531
aa(lp1443
g1386
aF0.756340090627988
aa(lp1444
g65
aF0.7336237270826534
aa(lp1445
g1387
aF0.7170985764696824
aa(lp1446
g67
aF0.8979633240378723
aa(lp1447
g263
aF0.5819488983073209
aa(lp1448
g700
aF0.8057022139688257
aa(lp1449
g68
aF0.7256203031125679
aa(lp1450
g70
aF0.4759403048212528
aa(lp1451
g71
aF0.13632578864588127
aa(lp1452
g701
aF0.33407902943193785
aa(lp1453
g75
aF0.7297578149014129
aa(lp1454
g702
aF0.39737340535002535
aasg178
F999.9999999999989
sg179
(lp1455
(lp1456
g695
aF0.7321378826037916
aa(lp1457
g696
aF0.7573252964069241
aa(lp1458
g51
aF0.5191220214505604
aa(lp1459
g255
aF0.7484405309001277
aa(lp1460
g55
aF0.6537482407428824
aa(lp1461
g698
aF0.7393325875973646
aa(lp1462
g60
aF0.16711061359245097
aa(lp1463
g699
aF0.7393325875973646
aa(lp1464
g61
aF0.5916669155435752
aa(lp1465
g1384
aF0.6839770327156126
aa(lp1466
g64
aF0.7484405309001277
aa(lp1467
g260
aF0.2510839990368638
aa(lp1468
g1385
aF0.7170985764696824
aa(lp1469
g261
aF0.6189340413235531
aa(lp1470
g1386
aF0.756340090627988
aa(lp1471
g65
aF0.7336237270826534
aa(lp1472
g1387
aF0.7170985764696824
aa(lp1473
g67
aF0.8979633240378723
aa(lp1474
g263
aF0.5819488983073209
aa(lp1475
g700
aF0.8057022139688257
aa(lp1476
g68
aF0.7256203031125679
aa(lp1477
g70
aF0.4759403048212528
aa(lp1478
g71
aF0.13632578864588127
aa(lp1479
g701
aF0.33407902943193785
aa(lp1480
g75
aF0.7297578149014129
aa(lp1481
g702
aF0.39737340535002535
aa(lp1482
S'rxn00904_c'
p1483
aF0.08414785849649246
aa(lp1484
S'rxn01334_c'
p1485
aF0.025276721182982728
aasg213
g141
(g102
S'\r\r\x12\xbaP]\xe2?'
p1486
tp1487
Rp1488
sg217
g218
sg219
g141
(g102
S'\xa4\x01wRz\xa4\xe3?'
p1489
tp1490
Rp1491
sg223
S'D-Alanine'
p1492
sg225
g226
sg227
g146
((lp1493
tp1494
Rp1495
ssS'220668.9:0.0.19'
p1496
(dp1497
g3
g4
sg5
F0.0
sg6
g7
(g8
g9
Ntp1498
Rp1499
(dp1500
g13
g14
sg15
g16
sg17
g7
(g18
g9
Ntp1501
Rp1502
((lp1503
g22
(g23
(dp1504
g25
g26
(g27
(I0
tp1505
g29
tp1506
Rp1507
(I1
(I1
tp1508
g36
I00
(lp1509
g40
atp1510
bsg42
Nstp1511
Rp1512
ag22
(g23
(dp1513
g25
g26
(g27
(I0
tp1514
g29
tp1515
Rp1516
(I1
(I30
tp1517
g36
I00
(lp1518
g254
ag51
ag52
ag53
ag255
ag55
ag57
ag58
ag59
ag60
ag61
ag62
ag63
ag64
ag65
ag69
ag70
ag71
ag73
ag74
ag77
ag78
ag79
ag80
ag82
ag84
ag85
aS'DM_cpd00054_c'
p1519
ag269
ag833
atp1520
bsg42
Nstp1521
Rp1522
a(lp1523
g26
(g27
(I0
tp1524
g29
tp1525
Rp1526
(I1
(I1
I30
tp1527
g102
I00
S'\xfd\xff\xff\xff\xff?\x7f@\xfe\xff\xff\xff\xff?\x8f@\xf8\xff\xff\xff\xff?\x8f@\xf5\xff\xff\xff\xffow@\x06\x00\x00\x00\x00\x88\x83@\xfe\xff\xff\xff\xff?\x8f@\xfe\xff\xff\xff\xff?\x7f\xc0\x01\x00\x00\x00\x00@o@\xf8\xff\xff\xff\xffo\x87@\xfc\xff\xff\xff\xff?\x7f@\xfd\xff\xff\xff\xff?\x8f\xc0\xf8\xff\xff\xff\xffo\x87\xc0\x01\x00\x00\x00\x00@o@\x00\x00\x00\x00\x00@\x8f\xc0\x00\x00\x00\x00\x00@\x8f\xc0\xfe\xff\xff\xff\xff?\x8f@\xfa\xff\xff\xff\xff?\x7f@\xfa\xff\xff\xff\xff?\x7f@\xf4\xff\xff\xff\xff?\x7f@\xf5\xff\xff\xff\xffow@\xfe\xff\xff\xff\xff?\x8f\xc0\xf5\xff\xff\xff\xffow@\x00\x00\x00\x00\x00@\x8f@\xf8\xff\xff\xff\xff?\x8f@\xfe\xff\xff\xff\xff?\x8f\xc0\xfc\xff\xff\xff\xff?\x7f\xc0\xf5\xff\xff\xff\xff?\x7f\xc0\xff\xff\xff\xff\xff?\x8f@\xfc\xff\xff\xff\xff?\x7f@\xff\xff\xff\xff\xff?\x8f@'
p1528
tp1529
ba(lp1530
g22
(g23
(dp1531
g25
g26
(g27
(I0
tp1532
g29
tp1533
Rp1534
(I1
(I1
tp1535
g36
I00
(lp1536
g40
atp1537
bsg42
Nstp1538
Rp1539
a(dp1540
g118
(dp1541
g120
g1503
sg121
(lp1542
(dp1543
g124
g125
(I0
I1
I1
tp1544
Rp1545
sg128
g1526
sasstp1546
bsbsg130
(lp1547
(lp1548
S'rxn00786_c'
p1549
aF0.025276721182982728
aa(lp1550
S'rxn00420_c'
p1551
aF0.005626397504920459
aasg138
(lp1552
sg140
g141
(g102
S'\xc0\x90o0\x11\xa5\x8f?'
p1553
tp1554
Rp1555
sg145
g146
((lp1556
g269
ag833
atp1557
Rp1558
sg150
(lp1559
(lp1560
g254
aF0.7297578149014129
aa(lp1561
g51
aF0.5191220214505604
aa(lp1562
g53
aF0.22013316862116666
aa(lp1563
g255
aF0.7484405309001277
aa(lp1564
g55
aF0.6537482407428824
aa(lp1565
g57
aF0.24052218400619058
aa(lp1566
g58
aF0.9930266647154689
aa(lp1567
g59
aF0.15505323034526253
aa(lp1568
g60
aF0.16711061359245097
aa(lp1569
g61
aF0.5916669155435752
aa(lp1570
g62
aF0.15505323034526253
aa(lp1571
g63
aF0.1179088482915993
aa(lp1572
g64
aF0.7484405309001277
aa(lp1573
g65
aF0.7336237270826534
aa(lp1574
g69
aF0.7156196405620668
aa(lp1575
g70
aF0.4759403048212528
aa(lp1576
g71
aF0.13632578864588127
aa(lp1577
g74
aF0.2701245309079547
aa(lp1578
g77
aF0.7767247721552878
aa(lp1579
g78
aF0.5971597609433806
aasg178
F1000.0000000000002
sg179
(lp1580
(lp1581
g254
aF0.7297578149014129
aa(lp1582
g51
aF0.5191220214505604
aa(lp1583
g53
aF0.22013316862116666
aa(lp1584
g255
aF0.7484405309001277
aa(lp1585
g55
aF0.6537482407428824
aa(lp1586
g57
aF0.24052218400619058
aa(lp1587
g58
aF0.9930266647154689
aa(lp1588
g59
aF0.15505323034526253
aa(lp1589
g60
aF0.16711061359245097
aa(lp1590
g61
aF0.5916669155435752
aa(lp1591
g62
aF0.15505323034526253
aa(lp1592
g63
aF0.1179088482915993
aa(lp1593
g64
aF0.7484405309001277
aa(lp1594
g65
aF0.7336237270826534
aa(lp1595
g69
aF0.7156196405620668
aa(lp1596
g70
aF0.4759403048212528
aa(lp1597
g71
aF0.13632578864588127
aa(lp1598
g74
aF0.2701245309079547
aa(lp1599
g77
aF0.7767247721552878
aa(lp1600
g78
aF0.5971597609433806
aa(lp1601
S'rxn00786_c'
p1602
aF0.025276721182982728
aa(lp1603
S'rxn00420_c'
p1604
aF0.005626397504920459
aasg213
g141
(g102
S'7\x87/\x83\xc1p\xdc?'
p1605
tp1606
Rp1607
sg217
g218
sg219
g141
(g102
S'H\x88\x8d\x02\x84/\xdf?'
p1608
tp1609
Rp1610
sg223
S'L-Serine'
p1611
sg225
g226
sg227
g146
((lp1612
tp1613
Rp1614
ssS'220668.9:0.0.18'
p1615
(dp1616
g3
g4
sg5
F0.0
sg6
g7
(g8
g9
Ntp1617
Rp1618
(dp1619
g13
g14
sg15
g16
sg17
g7
(g18
g9
Ntp1620
Rp1621
((lp1622
g22
(g23
(dp1623
g25
g26
(g27
(I0
tp1624
g29
tp1625
Rp1626
(I1
(I1
tp1627
g36
I00
(lp1628
g40
atp1629
bsg42
Nstp1630
Rp1631
ag22
(g23
(dp1632
g25
g26
(g27
(I0
tp1633
g29
tp1634
Rp1635
(I1
(I32
tp1636
g36
I00
(lp1637
g549
aS'rxn02374_c'
p1638
ag52
ag54
ag55
ag60
ag258
ag259
aS'rxn00931_c'
p1639
ag261
ag65
ag66
ag262
aS'rxn05493_c'
p1640
ag70
ag72
ag396
ag551
ag76
ag266
ag79
ag80
ag81
ag82
ag84
aS'EX_cpd00024_e'
p1641
ag267
ag553
aS'DM_cpd00129_c'
p1642
ag1291
ag562
ag1292
atp1643
bsg42
Nstp1644
Rp1645
a(lp1646
g26
(g27
(I0
tp1647
g29
tp1648
Rp1649
(I1
(I1
I32
tp1650
g102
I00
S'VUUUU\xd5\x84@WUUUU\xd5\x84@\x03\x00\x00\x00\x00@\x8f@\x01\x00\x00\x00\x00@\x8f\xc0ZUUUU\xd5\x84@\x01\x00\x00\x00\x00@\x8f@\xa7\xaa\xaa\xaa\xaa\nz@\xa7\xaa\xaa\xaa\xaa\nz\xc0WUUUU\xd5\x84\xc0\x0c\x00\x00\x00\x00@o@WUUUU\xd5\x84\xc0\x00\x00\x00\x00\x00@\x8f@\xa7\xaa\xaa\xaa\xaa\nz@ZUUUU\xd5t\xc0\xad\xaa\xaa\xaa\xaa:\x82@\x01\x00\x00\x00\x00@\x8f\xc0\xa7\xaa\xaa\xaa\xaa\nz@WUUUU\xd5\x84@\xac\xaa\xaa\xaa\xaa:\x82@\x00\x00\x00\x00\x00@\x8f\xc0`UUUU\xd5\x84\xc0\x03\x00\x00\x00\x00@\x8f@\x01\x00\x00\x00\x00@\x8f@ZUUUU\xd5\x84\xc0\x01\x00\x00\x00\x00@\x8f\xc0YUUUU\xd5t@\x00\x00\x00\x00\x00@\x8f@\x04\x00\x00\x00\x00@\x8f\xc0WUUUU\xd5\x84@\x04\x00\x00\x00\x00@\x8f\xc0\x04\x00\x00\x00\x00@\x8f@\x04\x00\x00\x00\x00@\x8f@'
p1651
tp1652
ba(lp1653
g22
(g23
(dp1654
g25
g26
(g27
(I0
tp1655
g29
tp1656
Rp1657
(I1
(I1
tp1658
g36
I00
(lp1659
g40
atp1660
bsg42
Nstp1661
Rp1662
a(dp1663
g118
(dp1664
g120
g1622
sg121
(lp1665
(dp1666
g124
g125
(I0
I1
I1
tp1667
Rp1668
sg128
g1649
sasstp1669
bsbsg130
(lp1670
(lp1671
S'rxn00973_c'
p1672
aF0.0
aa(lp1673
S'rxn00198_c'
p1674
aF0.0
aasg138
(lp1675
sg140
g141
(g102
S'\x00\x00\x00\x00\x00\x00\x00\x00'
p1676
tp1677
Rp1678
sg145
g146
((lp1679
g1291
ag562
ag1292
atp1680
Rp1681
sg150
(lp1682
(lp1683
g549
aF0.737071802475877
aa(lp1684
g54
aF0.22287311094173126
aa(lp1685
g55
aF0.6537482407428824
aa(lp1686
g60
aF0.16711061359245097
aa(lp1687
g258
aF0.7412135331479476
aa(lp1688
g259
aF0.35684399784346865
aa(lp1689
g1639
aF0.7465565821974371
aa(lp1690
g261
aF0.6189340413235531
aa(lp1691
g65
aF0.7336237270826534
aa(lp1692
g66
aF0.6371698314027111
aa(lp1693
g262
aF0.47666515237895574
aa(lp1694
g1640
aF0.9582900212746509
aa(lp1695
g70
aF0.4759403048212528
aa(lp1696
g72
aF0.4790450388155571
aa(lp1697
g396
aF0.608175981967571
aa(lp1698
g551
aF0.7299713274281023
aa(lp1699
g76
aF0.608175981967571
aasg178
F666.6666666666664
sg179
(lp1700
(lp1701
g549
aF0.737071802475877
aa(lp1702
g54
aF0.22287311094173126
aa(lp1703
g55
aF0.6537482407428824
aa(lp1704
g60
aF0.16711061359245097
aa(lp1705
g258
aF0.7412135331479476
aa(lp1706
g259
aF0.35684399784346865
aa(lp1707
g1639
aF0.7465565821974371
aa(lp1708
g261
aF0.6189340413235531
aa(lp1709
g65
aF0.7336237270826534
aa(lp1710
g66
aF0.6371698314027111
aa(lp1711
g262
aF0.47666515237895574
aa(lp1712
g1640
aF0.9582900212746509
aa(lp1713
g70
aF0.4759403048212528
aa(lp1714
g72
aF0.4790450388155571
aa(lp1715
g396
aF0.608175981967571
aa(lp1716
g551
aF0.7299713274281023
aa(lp1717
g76
aF0.608175981967571
aa(lp1718
S'rxn00973_c'
p1719
aF0.0
aa(lp1720
S'rxn00198_c'
p1721
aF0.0
aasg213
g141
(g102
S'\x83o\x19\xf1\xa0\xc2\xe0?'
p1722
tp1723
Rp1724
sg217
g218
sg219
g141
(g102
S'uO\xfe\x94h\xbb\xe2?'
p1725
tp1726
Rp1727
sg223
S'L-Proline'
p1728
sg225
g226
sg227
g146
((lp1729
S'cpd00260_c'
p1730
atp1731
Rp1732
ssS'220668.9:0.0.17'
p1733
(dp1734
g3
g4
sg5
F0.0
sg6
g7
(g8
g9
Ntp1735
Rp1736
(dp1737
g13
g14
sg15
g16
sg17
g7
(g18
g9
Ntp1738
Rp1739
((lp1740
g22
(g23
(dp1741
g25
g26
(g27
(I0
tp1742
g29
tp1743
Rp1744
(I1
(I1
tp1745
g36
I00
(lp1746
g40
atp1747
bsg42
Nstp1748
Rp1749
ag22
(g23
(dp1750
g25
g26
(g27
(I0
tp1751
g29
tp1752
Rp1753
(I1
(I37
tp1754
g36
I00
(lp1755
g254
ag695
ag696
ag51
ag52
ag697
ag255
ag1092
ag57
ag60
ag61
ag64
ag260
ag1385
ag261
ag65
ag1387
aS'rxn01302_c'
p1756
ag263
ag68
ag70
ag71
ag701
ag702
ag266
aS'rxn00493_c'
p1757
ag79
ag80
ag84
ag267
aS'EX_cpd00443_e'
p1758
aS'DM_cpd00066_c'
p1759
aVrxn10421_c
p1760
aVrxn01000_c
p1761
aVrxn11258_c
p1762
aVrxn01256_c
p1763
ag705
atp1764
bsg42
Nstp1765
Rp1766
a(lp1767
g26
(g27
(I0
tp1768
g29
tp1769
Rp1770
(I1
(I1
I37
tp1771
g102
I00
S'\x15\x00\x00\x00\x00@\x7f@\xfd\xff\xff\xff\xff?\x8f\xc0\xc4\xff\xff\xff\xffW\x8b@\xd4\x01\x00\x00\x00@_@\x16\x00\x00\x00\x00@\x8f@\x14\x00\x00\x00\x00@\x7f\xc0;\x00\x00\x00\x00\x88\x83@k\xff\xff\xff\xffow\xc0\xbf\x02\x00\x00\x00@_\xc0.\x00\x00\x00\x00@\x7f@\xd4\x01\x00\x00\x00@_\xc0\x00\x00\x00\x00\x00@\x8f\xc0\xfc\xff\xff\xff\xff?\x8f\xc0\xfa\xff\xff\xff\xff?\x8f@1\x00\x00\x00\x00@_\xc0\x07\x00\x00\x00\x00@\x8f\xc0\x01\x00\x00\x00\x00@\x8f\xc0k\xff\xff\xff\xffow@\xfd\xff\xff\xff\xff?\x8f@t\xff\xff\xff\xffow\xc0a\xff\xff\xff\xff?\x7f@\x06\x00\x00\x00\x00@\x7f@s\xff\xff\xff\xffow@\xc3\xff\xff\xff\xffW\x8b@\x00\x00\x00\x00\x00@\x8f\xc0\xff\xff\xff\xff\xff?\x8f\xc0\x13\x00\x00\x00\x00@\x8f\xc0\x16\x00\x00\x00\x00@\x8f@.\x00\x00\x00\x00@\x7f\xc0\x00\x00\x00\x00\x00@\x8f@\x00\x00\x00\x00\x00@\x8f\xc0\xff\xff\xff\xff\xff?\x8f@\x00\x00\x00\x00\x00@\x8f@\xff\xff\xff\xff\xff?\x8f@\x01\x00\x00\x00\x00@\x8f\xc0\x00\x00\x00\x00\x00@\x8f@\x14\x00\x00\x00\x00@\x7f@'
p1772
tp1773
ba(lp1774
g22
(g23
(dp1775
g25
g26
(g27
(I0
tp1776
g29
tp1777
Rp1778
(I1
(I1
tp1779
g36
I00
(lp1780
g40
atp1781
bsg42
Nstp1782
Rp1783
a(dp1784
g118
(dp1785
g120
g1740
sg121
(lp1786
(dp1787
g124
g125
(I0
I1
I1
tp1788
Rp1789
sg128
g1770
sasstp1790
bsbsg130
(lp1791
(lp1792
S'rxn01000_c'
p1793
aF0.2832444522363627
aa(lp1794
S'rxn01256_c'
p1795
aF0.06625844264549104
aa(lp1796
S'rxn01870_c'
p1797
aF0.025276721182982728
aasg138
(lp1798
sg140
g141
(g102
S'%\x92\x11\x86/\xfb\xbf?'
p1799
tp1800
Rp1801
sg145
g146
((lp1802
g1760
ag1761
ag1762
ag1763
ag705
ag91
atp1803
Rp1804
sg150
(lp1805
(lp1806
g254
aF0.7297578149014129
aa(lp1807
g695
aF0.7321378826037916
aa(lp1808
g696
aF0.7573252964069241
aa(lp1809
g51
aF0.5191220214505604
aa(lp1810
g697
aF0.15888293237286769
aa(lp1811
g255
aF0.7484405309001277
aa(lp1812
g1092
aF0.7165696798161908
aa(lp1813
g57
aF0.24052218400619058
aa(lp1814
g60
aF0.16711061359245097
aa(lp1815
g61
aF0.5916669155435752
aa(lp1816
g64
aF0.7484405309001277
aa(lp1817
g260
aF0.2510839990368638
aa(lp1818
g1385
aF0.7170985764696824
aa(lp1819
g261
aF0.6189340413235531
aa(lp1820
g65
aF0.7336237270826534
aa(lp1821
g1387
aF0.7170985764696824
aa(lp1822
g1756
aF0.7165696798161908
aa(lp1823
g263
aF0.5819488983073209
aa(lp1824
g68
aF0.7256203031125679
aa(lp1825
g70
aF0.4759403048212528
aa(lp1826
g71
aF0.13632578864588127
aa(lp1827
g701
aF0.33407902943193785
aa(lp1828
g702
aF0.39737340535002535
aa(lp1829
g1757
aF0.3633425186595832
aasg178
F999.9999999999999
sg179
(lp1830
(lp1831
g254
aF0.7297578149014129
aa(lp1832
g695
aF0.7321378826037916
aa(lp1833
g696
aF0.7573252964069241
aa(lp1834
g51
aF0.5191220214505604
aa(lp1835
g697
aF0.15888293237286769
aa(lp1836
g255
aF0.7484405309001277
aa(lp1837
g1092
aF0.7165696798161908
aa(lp1838
g57
aF0.24052218400619058
aa(lp1839
g60
aF0.16711061359245097
aa(lp1840
g61
aF0.5916669155435752
aa(lp1841
g64
aF0.7484405309001277
aa(lp1842
g260
aF0.2510839990368638
aa(lp1843
g1385
aF0.7170985764696824
aa(lp1844
g261
aF0.6189340413235531
aa(lp1845
g65
aF0.7336237270826534
aa(lp1846
g1387
aF0.7170985764696824
aa(lp1847
g1756
aF0.7165696798161908
aa(lp1848
g263
aF0.5819488983073209
aa(lp1849
g68
aF0.7256203031125679
aa(lp1850
g70
aF0.4759403048212528
aa(lp1851
g71
aF0.13632578864588127
aa(lp1852
g701
aF0.33407902943193785
aa(lp1853
g702
aF0.39737340535002535
aa(lp1854
g1757
aF0.3633425186595832
aa(lp1855
S'rxn01000_c'
p1856
aF0.2832444522363627
aa(lp1857
S'rxn01256_c'
p1858
aF0.06625844264549104
aa(lp1859
S'rxn01870_c'
p1860
aF0.025276721182982728
aasg213
g141
(g102
S'\xba\xbb*]\x99j\xdf?'
p1861
tp1862
Rp1863
sg217
g218
sg219
g141
(g102
S'P\xc3O\x86\t,\xe1?'
p1864
tp1865
Rp1866
sg223
S'L-Phenylalanine'
p1867
sg225
g226
sg227
g146
((lp1868
tp1869
Rp1870
ssS'220668.9:0.0.16'
p1871
(dp1872
g3
g4
sg5
F0.0
sg6
g7
(g8
g9
Ntp1873
Rp1874
(dp1875
g13
g14
sg15
g16
sg17
g7
(g18
g9
Ntp1876
Rp1877
((lp1878
g22
(g23
(dp1879
g25
g26
(g27
(I0
tp1880
g29
tp1881
Rp1882
(I1
(I1
tp1883
g36
I00
(lp1884
g40
atp1885
bsg42
Nstp1886
Rp1887
ag22
(g23
(dp1888
g25
g26
(g27
(I0
tp1889
g29
tp1890
Rp1891
(I1
(I57
tp1892
g36
I00
(lp1893
g1091
ag695
ag51
ag52
ag53
ag255
ag54
ag55
ag256
ag1092
ag1093
ag57
ag60
ag61
ag258
ag259
ag260
ag261
ag65
ag66
ag67
ag262
ag263
ag264
ag69
ag70
ag71
ag72
ag73
ag75
ag76
ag77
ag1094
ag266
ag79
ag80
ag81
ag82
ag84
ag85
ag267
ag86
aS'DM_cpd00060_c'
p1894
ag1100
ag1096
ag1097
ag1098
ag1099
ag833
ag89
ag1102
ag88
ag91
ag1103
ag1104
ag270
ag1105
atp1895
bsg42
Nstp1896
Rp1897
a(lp1898
g26
(g27
(I0
tp1899
g29
tp1900
Rp1901
(I1
(I1
I57
tp1902
g102
I00
S'\xbb\xe8\xa2\x8b.\xbaf@\xbb\xe8\xa2\x8b.\xbaf\xc0\x8d.\xba\xe8\xa2\x0b\x81@\x8a.\xba\xe8\xa2\x0b\x81@\xb9\xe8\xa2\x8b.\xbaf@\xba\xe8\xa2\x8b.\xbaf\xc0\xbb\xe8\xa2\x8b.\xba\x86\xc0\xb8\xe8\xa2\x8b.\xbav@\t\x00\x00\x00\x00@o@\xbb\xe8\xa2\x8b.\xbaf\xc0\xbb\xe8\xa2\x8b.\xbaf@\x8c.\xba\xe8\xa2\x0bq\xc0\xff\xff\xff\xff\xff?\x8f@\x8c.\xba\xe8\xa2\x0b\x81\xc0\x05\x00\x00\x00\x00@o@\x02\x00\x00\x00\x00@o\xc0\xbb\xe8\xa2\x8b.\xbav\xc0\x0f\x00\x00\x00\x00@o\xc0\xbb\xe8\xa2\x8b.\xbav\xc0\xba\xe8\xa2\x8b.\xba\x86@\x8c.\xba\xe8\xa2\x0bq\xc0\x05\x00\x00\x00\x00@o@\xbc\xe8\xa2\x8b.\xbav@\xbc\xe8\xa2\x8b.\xbaf\xc0\xba\xe8\xa2\x8b.\xbaf@\xfe\xff\xff\xff\xffo\x87@o\xe8\xa2\x8b.\xba6@\xbb\xe8\xa2\x8b.\xba\x86\xc0\xbb\xe8\xa2\x8b.\xba\x86\xc0\x8c.\xba\xe8\xa2\x0bq@\xbb\xe8\xa2\x8b.\xba\x86@\xba\xe8\xa2\x8b.\xbaf\xc0\xbb\xe8\xa2\x8b.\xbaf\xc0\xba\xe8\xa2\x8b.\xbaf@\xd8\xe8\xa2\x8b.\xbav@\x8a.\xba\xe8\xa2\x0b\x81@\xbb\xe8\xa2\x8b.\xba\x86@\xb8\xe8\xa2\x8b.\xbav\xc0\xff\xff\xff\xff\xff?\x8f\xc0\xbc\xe8\xa2\x8b.\xba\x86@\xba\xe8\xa2\x8b.\xbaf\xc0\xbb\xe8\xa2\x8b.\xbav\xc0\xba\xe8\xa2\x8b.\xbav@\xbb\xe8\xa2\x8b.\xbaf@\xba\xe8\xa2\x8b.\xbaf\xc0\xba\xe8\xa2\x8b.\xbaf\xc0\xba\xe8\xa2\x8b.\xbaf\xc0\xbc\xe8\xa2\x8b.\xbaf@\xba\xe8\xa2\x8b.\xbaf@\xbb\xe8\xa2\x8b.\xbav\xc0\xbb\xe8\xa2\x8b.\xbaf@\xbb\xe8\xa2\x8b.\xbav@\x8c.\xba\xe8\xa2\x0bq@\xbb\xe8\xa2\x8b.\xbaf@\xbb\xe8\xa2\x8b.\xbaf\xc0\xbb\xe8\xa2\x8b.\xbaf\xc0\xbb\xe8\xa2\x8b.\xbaf@'
p1903
tp1904
ba(lp1905
g22
(g23
(dp1906
g25
g26
(g27
(I0
tp1907
g29
tp1908
Rp1909
(I1
(I1
tp1910
g36
I00
(lp1911
g40
atp1912
bsg42
Nstp1913
Rp1914
a(dp1915
g118
(dp1916
g120
g1878
sg121
(lp1917
(dp1918
g124
g125
(I0
I1
I1
tp1919
Rp1920
sg128
g1901
sasstp1921
bsbsg130
(lp1922
(lp1923
S'rxn03052_c'
p1924
aF0.0
aa(lp1925
S'rxn01350_c'
p1926
aF0.0
aa(lp1927
S'rxn00456_c'
p1928
aF0.0
aa(lp1929
S'rxn00429_c'
p1930
aF0.0
aa(lp1931
S'rxn00737_c'
p1932
aF0.0
aa(lp1933
S'rxn00420_c'
p1934
aF0.005626397504920459
aa(lp1935
S'rxn05651_c'
p1936
aF0.0215613516152713
aa(lp1937
S'rxn01334_c'
p1938
aF0.025276721182982728
aa(lp1939
S'rxn00952_c'
p1940
aF0.0059493710811322365
aa(lp1941
S'rxn00251_c'
p1942
aF0.002793330585232272
aa(lp1943
S'rxn01303_c'
p1944
aF0.0
aasg138
(lp1945
sg140
g141
(g102
S"l'\x91H\x94\xcav?"
p1946
tp1947
Rp1948
sg145
g146
((lp1949
g1100
ag1096
ag1097
ag1098
ag1099
ag833
ag89
ag1102
ag88
ag91
ag1103
ag1104
ag270
ag1105
atp1950
Rp1951
sg150
(lp1952
(lp1953
g1091
aF0.8333333333333334
aa(lp1954
g695
aF0.7321378826037916
aa(lp1955
g51
aF0.5191220214505604
aa(lp1956
g53
aF0.22013316862116666
aa(lp1957
g255
aF0.7484405309001277
aa(lp1958
g54
aF0.22287311094173126
aa(lp1959
g55
aF0.6537482407428824
aa(lp1960
g256
aF0.13632578864588127
aa(lp1961
g1092
aF0.7165696798161908
aa(lp1962
g1093
aF0.7367584023517918
aa(lp1963
g57
aF0.24052218400619058
aa(lp1964
g60
aF0.16711061359245097
aa(lp1965
g61
aF0.5916669155435752
aa(lp1966
g258
aF0.7412135331479476
aa(lp1967
g259
aF0.35684399784346865
aa(lp1968
g260
aF0.2510839990368638
aa(lp1969
g261
aF0.6189340413235531
aa(lp1970
g65
aF0.7336237270826534
aa(lp1971
g66
aF0.6371698314027111
aa(lp1972
g67
aF0.8979633240378723
aa(lp1973
g262
aF0.47666515237895574
aa(lp1974
g263
aF0.5819488983073209
aa(lp1975
g264
aF0.8692059277500511
aa(lp1976
g69
aF0.7156196405620668
aa(lp1977
g70
aF0.4759403048212528
aa(lp1978
g71
aF0.13632578864588127
aa(lp1979
g72
aF0.4790450388155571
aa(lp1980
g75
aF0.7297578149014129
aa(lp1981
g76
aF0.608175981967571
aa(lp1982
g77
aF0.7767247721552878
aa(lp1983
g1094
aF0.7979364237407149
aasg178
F363.636363636364
sg179
(lp1984
(lp1985
g1091
aF0.8333333333333334
aa(lp1986
g695
aF0.7321378826037916
aa(lp1987
g51
aF0.5191220214505604
aa(lp1988
g53
aF0.22013316862116666
aa(lp1989
g255
aF0.7484405309001277
aa(lp1990
g54
aF0.22287311094173126
aa(lp1991
g55
aF0.6537482407428824
aa(lp1992
g256
aF0.13632578864588127
aa(lp1993
g1092
aF0.7165696798161908
aa(lp1994
g1093
aF0.7367584023517918
aa(lp1995
g57
aF0.24052218400619058
aa(lp1996
g60
aF0.16711061359245097
aa(lp1997
g61
aF0.5916669155435752
aa(lp1998
g258
aF0.7412135331479476
aa(lp1999
g259
aF0.35684399784346865
aa(lp2000
g260
aF0.2510839990368638
aa(lp2001
g261
aF0.6189340413235531
aa(lp2002
g65
aF0.7336237270826534
aa(lp2003
g66
aF0.6371698314027111
aa(lp2004
g67
aF0.8979633240378723
aa(lp2005
g262
aF0.47666515237895574
aa(lp2006
g263
aF0.5819488983073209
aa(lp2007
g264
aF0.8692059277500511
aa(lp2008
g69
aF0.7156196405620668
aa(lp2009
g70
aF0.4759403048212528
aa(lp2010
g71
aF0.13632578864588127
aa(lp2011
g72
aF0.4790450388155571
aa(lp2012
g75
aF0.7297578149014129
aa(lp2013
g76
aF0.608175981967571
aa(lp2014
g77
aF0.7767247721552878
aa(lp2015
g1094
aF0.7979364237407149
aa(lp2016
S'rxn03052_c'
p2017
aF0.0
aa(lp2018
S'rxn01350_c'
p2019
aF0.0
aa(lp2020
S'rxn00456_c'
p2021
aF0.0
aa(lp2022
S'rxn00429_c'
p2023
aF0.0
aa(lp2024
S'rxn00737_c'
p2025
aF0.0
aa(lp2026
S'rxn00420_c'
p2027
aF0.005626397504920459
aa(lp2028
S'rxn05651_c'
p2029
aF0.0215613516152713
aa(lp2030
S'rxn01334_c'
p2031
aF0.025276721182982728
aa(lp2032
S'rxn00952_c'
p2033
aF0.0059493710811322365
aa(lp2034
S'rxn00251_c'
p2035
aF0.002793330585232272
aa(lp2036
S'rxn01303_c'
p2037
aF0.0
aasg213
g141
(g102
S'HG\x85A\xac\x9c\xda?'
p2038
tp2039
Rp2040
sg217
g218
sg219
g141
(g102
S'\xbb\x97`\xaa\xdc\xf6\xe1?'
p2041
tp2042
Rp2043
sg223
S'L-Methionine'
p2044
sg225
g226
sg227
g146
((lp2045
S'cpd00324_c'
p2046
atp2047
Rp2048
ssS'220668.9:0.0.15'
p2049
(dp2050
g3
g4
sg5
F0.0
sg6
g7
(g8
g9
Ntp2051
Rp2052
(dp2053
g13
g14
sg15
g16
sg17
g7
(g18
g9
Ntp2054
Rp2055
((lp2056
g22
(g23
(dp2057
g25
g26
(g27
(I0
tp2058
g29
tp2059
Rp2060
(I1
(I1
tp2061
g36
I00
(lp2062
g40
atp2063
bsg42
Nstp2064
Rp2065
ag22
(g23
(dp2066
g25
g26
(g27
(I0
tp2067
g29
tp2068
Rp2069
(I1
(I43
tp2070
g36
I00
(lp2071
g254
aS'rxn03030_c'
p2072
ag1091
aS'rxn01974_c'
p2073
aS'rxn00225_c'
p2074
ag695
ag51
ag52
ag255
ag54
ag55
ag1093
ag57
ag60
aS'rxn01972_c'
p2075
ag61
ag390
ag258
ag259
ag64
ag260
aS'rxn00313_c'
p2076
ag261
ag65
ag66
ag262
ag263
ag264
ag70
ag71
ag72
ag396
ag79
ag80
ag81
ag82
ag84
aS'DM_cpd00039_c'
p2077
aVrxn03086_c
p2078
aVrxn02928_c
p2079
ag269
aVrxn01644_c
p2080
ag270
atp2081
bsg42
Nstp2082
Rp2083
a(lp2084
g26
(g27
(I0
tp2085
g29
tp2086
Rp2087
(I1
(I1
I43
tp2088
g102
I00
S'UUUUU\xd5t@UUUUU\xd5t@VUUUU\xd5t@UUUUU\xd5t@VUUUU\xd5t@UUUUU\xd5t\xc0UUUUU\xd5\x84@NUUUU\xd5\x84@TUUUU\xd5t@SUUUU\xd5\x84\xc0TUUUU\xd5\x84@UUUUU\xd5t@UUUUU\xd5t\xc0\xff\xff\xff\xff\xff?\x8f@VUUUU\xd5t@TUUUU\xd5\x84\xc0VUUUU\xd5t\xc0EUUUU\xd5\x84@EUUUU\xd5\x84\xc0TUUUU\xd5t\xc0TUUUU\xd5\x84\xc0UUUUU\xd5t@XUUUU\xd5t\xc0TUUUU\xd5\x84\xc0SUUUU\xd5\x84@EUUUU\xd5\x84@TUUUU\xd5\x84@UUUUU\xd5t\xc0iUUUU\xd5t@UUUUU\xd5t@SUUUU\xd5\x84\xc0HUUUU\xd5\x84@\x00\x00\x00\x00\x00@\x8f@NUUUU\xd5\x84@SUUUU\xd5\x84@TUUUU\xd5\x84\xc0\xff\xff\xff\xff\xff?\x8f\xc0TUUUU\xd5t@UUUUU\xd5t\xc0UUUUU\xd5t\xc0UUUUU\xd5t@UUUUU\xd5t@UUUUU\xd5t\xc0'
p2089
tp2090
ba(lp2091
g22
(g23
(dp2092
g25
g26
(g27
(I0
tp2093
g29
tp2094
Rp2095
(I1
(I1
tp2096
g36
I00
(lp2097
g40
atp2098
bsg42
Nstp2099
Rp2100
a(dp2101
g118
(dp2102
g120
g2056
sg121
(lp2103
(dp2104
g124
g125
(I0
I1
I1
tp2105
Rp2106
sg128
g2087
sasstp2107
bsbsg130
(lp2108
(lp2109
S'rxn03086_c'
p2110
aF0.3845326721169267
aa(lp2111
S'rxn02928_c'
p2112
aF0.0
aa(lp2113
S'rxn00786_c'
p2114
aF0.025276721182982728
aa(lp2115
S'rxn01644_c'
p2116
aF0.0
aa(lp2117
S'rxn00251_c'
p2118
aF0.002793330585232272
aasg138
(lp2119
sg140
g141
(g102
S'\xb3\xc0\x10\x01\x11 \xb5?'
p2120
tp2121
Rp2122
sg145
g146
((lp2123
g2078
ag2079
ag269
ag2080
ag270
atp2124
Rp2125
sg150
(lp2126
(lp2127
g254
aF0.7297578149014129
aa(lp2128
g2072
aF0.7537398243586267
aa(lp2129
g1091
aF0.8333333333333334
aa(lp2130
g2073
aF0.8457796524475929
aa(lp2131
g2074
aF0.7081615561511267
aa(lp2132
g695
aF0.7321378826037916
aa(lp2133
g51
aF0.5191220214505604
aa(lp2134
g255
aF0.7484405309001277
aa(lp2135
g54
aF0.22287311094173126
aa(lp2136
g55
aF0.6537482407428824
aa(lp2137
g1093
aF0.7367584023517918
aa(lp2138
g57
aF0.24052218400619058
aa(lp2139
g60
aF0.16711061359245097
aa(lp2140
g2075
aF0.6688677313857649
aa(lp2141
g61
aF0.5916669155435752
aa(lp2142
g390
aF0.7297596125397976
aa(lp2143
g258
aF0.7412135331479476
aa(lp2144
g259
aF0.35684399784346865
aa(lp2145
g64
aF0.7484405309001277
aa(lp2146
g260
aF0.2510839990368638
aa(lp2147
g2076
aF0.7121951970800003
aa(lp2148
g261
aF0.6189340413235531
aa(lp2149
g65
aF0.7336237270826534
aa(lp2150
g66
aF0.6371698314027111
aa(lp2151
g262
aF0.47666515237895574
aa(lp2152
g263
aF0.5819488983073209
aa(lp2153
g264
aF0.8692059277500511
aa(lp2154
g70
aF0.4759403048212528
aa(lp2155
g71
aF0.13632578864588127
aa(lp2156
g72
aF0.4790450388155571
aa(lp2157
g396
aF0.608175981967571
aasg178
F333.33333333333456
sg179
(lp2158
(lp2159
g254
aF0.7297578149014129
aa(lp2160
g2072
aF0.7537398243586267
aa(lp2161
g1091
aF0.8333333333333334
aa(lp2162
g2073
aF0.8457796524475929
aa(lp2163
g2074
aF0.7081615561511267
aa(lp2164
g695
aF0.7321378826037916
aa(lp2165
g51
aF0.5191220214505604
aa(lp2166
g255
aF0.7484405309001277
aa(lp2167
g54
aF0.22287311094173126
aa(lp2168
g55
aF0.6537482407428824
aa(lp2169
g1093
aF0.7367584023517918
aa(lp2170
g57
aF0.24052218400619058
aa(lp2171
g60
aF0.16711061359245097
aa(lp2172
g2075
aF0.6688677313857649
aa(lp2173
g61
aF0.5916669155435752
aa(lp2174
g390
aF0.7297596125397976
aa(lp2175
g258
aF0.7412135331479476
aa(lp2176
g259
aF0.35684399784346865
aa(lp2177
g64
aF0.7484405309001277
aa(lp2178
g260
aF0.2510839990368638
aa(lp2179
g2076
aF0.7121951970800003
aa(lp2180
g261
aF0.6189340413235531
aa(lp2181
g65
aF0.7336237270826534
aa(lp2182
g66
aF0.6371698314027111
aa(lp2183
g262
aF0.47666515237895574
aa(lp2184
g263
aF0.5819488983073209
aa(lp2185
g264
aF0.8692059277500511
aa(lp2186
g70
aF0.4759403048212528
aa(lp2187
g71
aF0.13632578864588127
aa(lp2188
g72
aF0.4790450388155571
aa(lp2189
g396
aF0.608175981967571
aa(lp2190
S'rxn03086_c'
p2191
aF0.3845326721169267
aa(lp2192
S'rxn02928_c'
p2193
aF0.0
aa(lp2194
S'rxn00786_c'
p2195
aF0.025276721182982728
aa(lp2196
S'rxn01644_c'
p2197
aF0.0
aa(lp2198
S'rxn00251_c'
p2199
aF0.002793330585232272
aasg213
g141
(g102
S'\x9dn\xf9\x99\x1c\xa4\xe0?'
p2200
tp2201
Rp2202
sg217
g218
sg219
g141
(g102
S'`\xb6Mc1\xe6\xe2?'
p2203
tp2204
Rp2205
sg223
S'L-Lysine'
p2206
sg225
g226
sg227
g146
((lp2207
S'cpd02120_c'
p2208
atp2209
Rp2210
ssS'220668.9:0.0.14'
p2211
(dp2212
g3
g4
sg5
F0.0
sg6
g7
(g8
g9
Ntp2213
Rp2214
(dp2215
g13
g14
sg15
g16
sg17
g7
(g18
g9
Ntp2216
Rp2217
((lp2218
g22
(g23
(dp2219
g25
g26
(g27
(I0
tp2220
g29
tp2221
Rp2222
(I1
(I1
tp2223
g36
I00
(lp2224
g40
atp2225
bsg42
Nstp2226
Rp2227
ag22
(g23
(dp2228
g25
g26
(g27
(I0
tp2229
g29
tp2230
Rp2231
(I1
(I55
tp2232
g36
I00
(lp2233
S'rxn06672_c'
p2234
ag695
ag51
ag52
ag255
ag54
ag55
aS'rxn06673_c'
p2235
aS'rxn01454_c'
p2236
ag60
aS'rxn03886_c'
p2237
ag61
ag390
ag1384
ag391
aS'rxn10184_c'
p2238
ag64
ag260
ag1385
ag261
ag392
ag65
ag66
ag1387
ag67
ag263
ag393
ag70
ag71
aS'rxn00806_c'
p2239
ag394
ag72
ag76
ag266
ag79
ag80
ag81
ag82
ag84
aS'EX_cpd00588_e'
p2240
ag267
aS'DM_cpd00107_c'
p2241
aVrxn00898_c
p2242
aVrxn10030_c
p2243
aVrxn02889_c
p2244
ag398
aVrxn00003_c
p2245
aVrxn00178_c
p2246
aVrxn00902_c
p2247
aVrxn02186_c
p2248
aVrxn01207_c
p2249
aVrxn13659_c
p2250
aS'DM_cpd15269_c'
p2251
aVrxn13022_c
p2252
aVrxn01504_c
p2253
atp2254
bsg42
Nstp2255
Rp2256
a(lp2257
g26
(g27
(I0
tp2258
g29
tp2259
Rp2260
(I1
(I1
I55
tp2261
g102
I00
S'\x14\xb2\x90\x85,da@8\xbd\xe9Moz\x82\xc0\xa97\xbd\xe9M\xef\x81@\x00\x00\x00\x00\x00@\x8f@\xe0\xf4\xa67\xbd\xa9\x81@\x8b\x85,d!\x8by\xc0\xb3\x90\x85,d\xa1z@\x13\xb2\x90\x85,da@\x1c\xb2\x90\x85,da@\x01\x00\x00\x00\x00@\x8f@\x1b\xb2\x90\x85,d1\xc0\xa97\xbd\xe9M\xef\x81\xc0|\xd3\x9b\xde\xf4\xe6\x8a\xc0\xa6\x90\x85,d\xa1j@\xa87\xbd\xe9M\xefq@\x1b\xb2\x90\x85,d1\xc0\xe0\xf4\xa67\xbd\xa9\x81\xc0\xa97\xbd\xe9M\xef\x81\xc0\xa7\x90\x85,d\xa1j@\xfa\xa67\xbd\xe9\x8dv\xc0\xa87\xbd\xe9M\xefq@\xb3\x90\x85,d\xa1z\xc0\x8a\x85,d!\x8by@\xa7\x90\x85,d\xa1j\xc0\xa87\xbd\xe9M\xefq\xc0\xa97\xbd\xe9M\xef\x81@\xa87\xbd\xe9M\xef\x81@\xfe\xff\xff\xff\xff?\x8f@7\xbd\xe9Moz\x82@\xb2\x90\x85,d\xa1z\xc0\xa87\xbd\xe9M\xefq@\x8a\x85,d!\x8by\xc0\x8f\x85,d!\x8by@\xa87\xbd\xe9M\xef\x81\xc0\xb8\x90\x85,d\xa1\x8a@\x00\x00\x00\x00\x00@\x8f@\x8b\x85,d!\x8by@\xb3\x90\x85,d\xa1z\xc0\x01\x00\x00\x00\x00@\x8f\xc0\x1a\xb2\x90\x85,d1@\xa87\xbd\xe9M\xef\x81@\xb2\x90\x85,d\xa1z@\xa87\xbd\xe9M\xefq@\x13\xb2\x90\x85,d1@\x13\xb2\x90\x85,da\xc0\xa87\xbd\xe9M\xefq@\xa87\xbd\xe9M\xefq\xc0\x1c\xb2\x90\x85,da@\xa87\xbd\xe9M\xefq@\xa87\xbd\xe9M\xefq@\x13\xb2\x90\x85,da\xc0\x13\xb2\x90\x85,da\xc0\x13\xb2\x90\x85,d1@\xa87\xbd\xe9M\xefq@\x1c\xb2\x90\x85,da@'
p2262
tp2263
ba(lp2264
g22
(g23
(dp2265
g25
g26
(g27
(I0
tp2266
g29
tp2267
Rp2268
(I1
(I1
tp2269
g36
I00
(lp2270
g40
atp2271
bsg42
Nstp2272
Rp2273
a(dp2274
g118
(dp2275
g120
g2218
sg121
(lp2276
(dp2277
g124
g125
(I0
I1
I1
tp2278
Rp2279
sg128
g2260
sasstp2280
bsbsg130
(lp2281
(lp2282
S'rxn00898_c'
p2283
aF0.0
aa(lp2284
S'rxn02889_c'
p2285
aF0.053468414771868665
aa(lp2286
S'rxn00777_c'
p2287
aF0.7913776374220073
aa(lp2288
S'rxn00003_c'
p2289
aF0.0
aa(lp2290
S'rxn00178_c'
p2291
aF0.0
aa(lp2292
S'rxn00902_c'
p2293
aF0.0
aa(lp2294
S'rxn02186_c'
p2295
aF0.0
aa(lp2296
S'rxn01207_c'
p2297
aF0.0
aa(lp2298
S'rxn01504_c'
p2299
aF0.0
aasg138
(lp2300
g2251
asg140
g141
(g102
S'6\x17{0\xfb\x07\xb8?'
p2301
tp2302
Rp2303
sg145
g146
((lp2304
g2242
ag2243
ag2244
ag398
ag2245
ag2246
ag2247
ag2248
ag2249
ag2250
ag2251
ag2252
ag2253
atp2305
Rp2306
sg150
(lp2307
(lp2308
g2234
aF0.40240149080718973
aa(lp2309
g695
aF0.7321378826037916
aa(lp2310
g51
aF0.5191220214505604
aa(lp2311
g255
aF0.7484405309001277
aa(lp2312
g54
aF0.22287311094173126
aa(lp2313
g55
aF0.6537482407428824
aa(lp2314
g2235
aF0.7297560463600179
aa(lp2315
g2236
aF0.8083264462157792
aa(lp2316
g60
aF0.16711061359245097
aa(lp2317
g2237
aF0.4441389856444226
aa(lp2318
g61
aF0.5916669155435752
aa(lp2319
g390
aF0.7297596125397976
aa(lp2320
g1384
aF0.6839770327156126
aa(lp2321
g391
aF0.7331256660930605
aa(lp2322
g2238
aF0.12691318020878972
aa(lp2323
g64
aF0.7484405309001277
aa(lp2324
g260
aF0.2510839990368638
aa(lp2325
g1385
aF0.7170985764696824
aa(lp2326
g261
aF0.6189340413235531
aa(lp2327
g392
aF0.7603672794410494
aa(lp2328
g65
aF0.7336237270826534
aa(lp2329
g66
aF0.6371698314027111
aa(lp2330
g1387
aF0.7170985764696824
aa(lp2331
g67
aF0.8979633240378723
aa(lp2332
g263
aF0.5819488983073209
aa(lp2333
g393
aF0.7603672794410494
aa(lp2334
g70
aF0.4759403048212528
aa(lp2335
g71
aF0.13632578864588127
aa(lp2336
g2239
aF0.8057022139688257
aa(lp2337
g394
aF0.2340700358459846
aa(lp2338
g72
aF0.4790450388155571
aa(lp2339
g76
aF0.608175981967571
aasg178
F426.08695652173924
sg179
(lp2340
(lp2341
g2234
aF0.40240149080718973
aa(lp2342
g695
aF0.7321378826037916
aa(lp2343
g51
aF0.5191220214505604
aa(lp2344
g255
aF0.7484405309001277
aa(lp2345
g54
aF0.22287311094173126
aa(lp2346
g55
aF0.6537482407428824
aa(lp2347
g2235
aF0.7297560463600179
aa(lp2348
g2236
aF0.8083264462157792
aa(lp2349
g60
aF0.16711061359245097
aa(lp2350
g2237
aF0.4441389856444226
aa(lp2351
g61
aF0.5916669155435752
aa(lp2352
g390
aF0.7297596125397976
aa(lp2353
g1384
aF0.6839770327156126
aa(lp2354
g391
aF0.7331256660930605
aa(lp2355
g2238
aF0.12691318020878972
aa(lp2356
g64
aF0.7484405309001277
aa(lp2357
g260
aF0.2510839990368638
aa(lp2358
g1385
aF0.7170985764696824
aa(lp2359
g261
aF0.6189340413235531
aa(lp2360
g392
aF0.7603672794410494
aa(lp2361
g65
aF0.7336237270826534
aa(lp2362
g66
aF0.6371698314027111
aa(lp2363
g1387
aF0.7170985764696824
aa(lp2364
g67
aF0.8979633240378723
aa(lp2365
g263
aF0.5819488983073209
aa(lp2366
g393
aF0.7603672794410494
aa(lp2367
g70
aF0.4759403048212528
aa(lp2368
g71
aF0.13632578864588127
aa(lp2369
g2239
aF0.8057022139688257
aa(lp2370
g394
aF0.2340700358459846
aa(lp2371
g72
aF0.4790450388155571
aa(lp2372
g76
aF0.608175981967571
aa(lp2373
S'rxn00898_c'
p2374
aF0.0
aa(lp2375
S'rxn02889_c'
p2376
aF0.053468414771868665
aa(lp2377
S'rxn00777_c'
p2378
aF0.7913776374220073
aa(lp2379
S'rxn00003_c'
p2380
aF0.0
aa(lp2381
S'rxn00178_c'
p2382
aF0.0
aa(lp2383
S'rxn00902_c'
p2384
aF0.0
aa(lp2385
S'rxn02186_c'
p2386
aF0.0
aa(lp2387
S'rxn01207_c'
p2388
aF0.0
aa(lp2389
S'rxn01504_c'
p2390
aF0.0
aasg213
g141
(g102
S'\xdf\xa7\x8f\xb7%!\xde?'
p2391
tp2392
Rp2393
sg217
g218
sg219
g141
(g102
S'\xba\xb3\xe3T\xf4t\xe2?'
p2394
tp2395
Rp2396
sg223
S'L-Leucine'
p2397
sg225
g226
sg227
g146
((lp2398
S'cpd01966_c'
p2399
aS'cpd02498_c'
p2400
aS'cpd02068_c'
p2401
aS'cpd01646_c'
p2402
atp2403
Rp2404
ssS'220668.9:0.0.13'
p2405
(dp2406
g3
g4
sg5
F0.0
sg6
g7
(g8
g9
Ntp2407
Rp2408
(dp2409
g13
g14
sg15
g16
sg17
g7
(g18
g9
Ntp2410
Rp2411
((lp2412
g22
(g23
(dp2413
g25
g26
(g27
(I0
tp2414
g29
tp2415
Rp2416
(I1
(I1
tp2417
g36
I00
(lp2418
g40
atp2419
bsg42
Nstp2420
Rp2421
ag22
(g23
(dp2422
g25
g26
(g27
(I0
tp2423
g29
tp2424
Rp2425
(I1
(I43
tp2426
g36
I00
(lp2427
g254
ag1091
ag695
ag51
ag52
ag255
ag54
ag55
ag1092
ag1093
ag57
aS'rxn01575_c'
p2428
ag60
aS'rxn01300_c'
p2429
ag61
ag258
ag259
ag64
ag260
ag261
ag65
ag66
aS'rxn01069_c'
p2430
ag262
ag263
ag264
ag70
ag71
ag72
ag396
ag76
ag79
ag80
ag81
ag82
ag84
aS'DM_cpd00322_c'
p2431
ag1099
aVrxn08764_c
p2432
ag269
aVrxn08043_c
p2433
aVrxn03437_c
p2434
ag270
atp2435
bsg42
Nstp2436
Rp2437
a(lp2438
g26
(g27
(I0
tp2439
g29
tp2440
Rp2441
(I1
(I1
I43
tp2442
g102
I00
S'\xfb\xff\xff\xff\xff?o@\xfc\xff\xff\xff\xff?o@\xfd\xff\xff\xff\xff?o\xc0\xfc\xff\xff\xff\xff?\x7f@\x08\x00\x00\x00\x00@o@\xfa\xff\xff\xff\xff?o@\xfe\xff\xff\xff\xffo\x87\xc0\xfe\xff\xff\xff\xff?o@\xfd\xff\xff\xff\xff?o\xc0\xfd\xff\xff\xff\xff?o@\xfa\xff\xff\xff\xff?o\xc0\xfd\xff\xff\xff\xff?o\xc0\xfb\xff\xff\xff\xff?\x8f@\xfc\xff\xff\xff\xff?o@\xfb\xff\xff\xff\xff?\x7f\xc0\x03\x00\x00\x00\x00\x94\x81@\x01\x00\x00\x00\x00\x94\x81\xc0\xfa\xff\xff\xff\xff?o\xc0\xfb\xff\xff\xff\xff?\x7f\xc0\xfb\xff\xff\xff\xff\x87s\xc0\xfe\xff\xff\xff\xff?\x7f\xc0\xfe\xff\xff\xff\xffo\x87@\xfc\xff\xff\xff\xff?o@\x01\x00\x00\x00\x00\x94\x81@\xfc\xff\xff\xff\xff?\x7f@\xfd\xff\xff\xff\xff?o\xc0\xf4\xff\xff\xff\xffW{@\xfb\xff\xff\xff\xff?o@\xff\xff\xff\xff\xffo\x87\xc0\x03\x00\x00\x00\x00\x94\x81@\xec\xff\xff\xff\xffog@\xf7\xff\xff\xff\xff?\x8f@\x08\x00\x00\x00\x00@o@\xfe\xff\xff\xff\xffo\x87@\xfe\xff\xff\xff\xff?o\xc0\xfb\xff\xff\xff\xff?\x8f\xc0\xfc\xff\xff\xff\xff?o@\xfd\xff\xff\xff\xff?o@\xfc\xff\xff\xff\xff?o@\xfa\xff\xff\xff\xff?o@\xfc\xff\xff\xff\xff?o@\xfc\xff\xff\xff\xff?o@\xfd\xff\xff\xff\xff?o\xc0'
p2443
tp2444
ba(lp2445
g22
(g23
(dp2446
g25
g26
(g27
(I0
tp2447
g29
tp2448
Rp2449
(I1
(I1
tp2450
g36
I00
(lp2451
g40
atp2452
bsg42
Nstp2453
Rp2454
a(dp2455
g118
(dp2456
g120
g2412
sg121
(lp2457
(dp2458
g124
g125
(I0
I1
I1
tp2459
Rp2460
sg128
g2441
sasstp2461
bsbsg130
(lp2462
(lp2463
S'rxn00737_c'
p2464
aF0.0
aa(lp2465
S'rxn00786_c'
p2466
aF0.025276721182982728
aa(lp2467
S'rxn08043_c'
p2468
aF0.0
aa(lp2469
S'rxn03437_c'
p2470
aF0.0
aa(lp2471
S'rxn00251_c'
p2472
aF0.002793330585232272
aasg138
(lp2473
sg140
g141
(g102
S'\xb9\x90\xe4m\xb7\xfev?'
p2474
tp2475
Rp2476
sg145
g146
((lp2477
g1099
ag2432
ag269
ag2433
ag2434
ag270
atp2478
Rp2479
sg150
(lp2480
(lp2481
g254
aF0.7297578149014129
aa(lp2482
g1091
aF0.8333333333333334
aa(lp2483
g695
aF0.7321378826037916
aa(lp2484
g51
aF0.5191220214505604
aa(lp2485
g255
aF0.7484405309001277
aa(lp2486
g54
aF0.22287311094173126
aa(lp2487
g55
aF0.6537482407428824
aa(lp2488
g1092
aF0.7165696798161908
aa(lp2489
g1093
aF0.7367584023517918
aa(lp2490
g57
aF0.24052218400619058
aa(lp2491
g2428
aF0.8057022139688257
aa(lp2492
g60
aF0.16711061359245097
aa(lp2493
g2429
aF0.7641693855295804
aa(lp2494
g61
aF0.5916669155435752
aa(lp2495
g258
aF0.7412135331479476
aa(lp2496
g259
aF0.35684399784346865
aa(lp2497
g64
aF0.7484405309001277
aa(lp2498
g260
aF0.2510839990368638
aa(lp2499
g261
aF0.6189340413235531
aa(lp2500
g65
aF0.7336237270826534
aa(lp2501
g66
aF0.6371698314027111
aa(lp2502
g2430
aF0.8038543133968207
aa(lp2503
g262
aF0.47666515237895574
aa(lp2504
g263
aF0.5819488983073209
aa(lp2505
g264
aF0.8692059277500511
aa(lp2506
g70
aF0.4759403048212528
aa(lp2507
g71
aF0.13632578864588127
aa(lp2508
g72
aF0.4790450388155571
aa(lp2509
g396
aF0.608175981967571
aa(lp2510
g76
aF0.608175981967571
aasg178
F249.99999999999977
sg179
(lp2511
(lp2512
g254
aF0.7297578149014129
aa(lp2513
g1091
aF0.8333333333333334
aa(lp2514
g695
aF0.7321378826037916
aa(lp2515
g51
aF0.5191220214505604
aa(lp2516
g255
aF0.7484405309001277
aa(lp2517
g54
aF0.22287311094173126
aa(lp2518
g55
aF0.6537482407428824
aa(lp2519
g1092
aF0.7165696798161908
aa(lp2520
g1093
aF0.7367584023517918
aa(lp2521
g57
aF0.24052218400619058
aa(lp2522
g2428
aF0.8057022139688257
aa(lp2523
g60
aF0.16711061359245097
aa(lp2524
g2429
aF0.7641693855295804
aa(lp2525
g61
aF0.5916669155435752
aa(lp2526
g258
aF0.7412135331479476
aa(lp2527
g259
aF0.35684399784346865
aa(lp2528
g64
aF0.7484405309001277
aa(lp2529
g260
aF0.2510839990368638
aa(lp2530
g261
aF0.6189340413235531
aa(lp2531
g65
aF0.7336237270826534
aa(lp2532
g66
aF0.6371698314027111
aa(lp2533
g2430
aF0.8038543133968207
aa(lp2534
g262
aF0.47666515237895574
aa(lp2535
g263
aF0.5819488983073209
aa(lp2536
g264
aF0.8692059277500511
aa(lp2537
g70
aF0.4759403048212528
aa(lp2538
g71
aF0.13632578864588127
aa(lp2539
g72
aF0.4790450388155571
aa(lp2540
g396
aF0.608175981967571
aa(lp2541
g76
aF0.608175981967571
aa(lp2542
S'rxn00737_c'
p2543
aF0.0
aa(lp2544
S'rxn00786_c'
p2545
aF0.025276721182982728
aa(lp2546
S'rxn08043_c'
p2547
aF0.0
aa(lp2548
S'rxn03437_c'
p2549
aF0.0
aa(lp2550
S'rxn00251_c'
p2551
aF0.002793330585232272
aasg213
g141
(g102
S'R\xe3\x87FL\x1b\xe0?'
p2552
tp2553
Rp2554
sg217
g218
sg219
g141
(g102
S'\xb0\xe7yj\xd9\xc2\xe2?'
p2555
tp2556
Rp2557
sg223
S'L-Isoleucine'
p2558
sg225
g226
sg227
g146
((lp2559
S'cpd02535_c'
p2560
aS'cpd00498_c'
p2561
atp2562
Rp2563
ssS'220668.9:0.0.12'
p2564
(dp2565
g3
g4
sg5
F0.0
sg6
g7
(g8
g9
Ntp2566
Rp2567
(dp2568
g13
g14
sg15
g16
sg17
g7
(g18
g9
Ntp2569
Rp2570
((lp2571
g22
(g23
(dp2572
g25
g26
(g27
(I0
tp2573
g29
tp2574
Rp2575
(I1
(I1
tp2576
g36
I00
(lp2577
g40
atp2578
bsg42
Nstp2579
Rp2580
ag22
(g23
(dp2581
g25
g26
(g27
(I0
tp2582
g29
tp2583
Rp2584
(I1
(I44
tp2585
g36
I00
(lp2586
S'rxn02320_c'
p2587
ag387
aS'rxn00789_c'
p2588
ag52
aS'rxn02160_c'
p2589
aS'rxn02159_c'
p2590
ag54
ag55
ag58
aS'rxn02835_c'
p2591
ag59
ag60
aS'rxn03175_c'
p2592
ag257
ag62
ag63
ag1384
aS'rxn03135_c'
p2593
ag258
ag259
aS'rxn00863_c'
p2594
ag261
ag65
ag66
ag262
aS'rxn02834_c'
p2595
aS'rxn02473_c'
p2596
ag72
ag396
ag73
ag265
ag79
ag80
ag81
ag82
ag84
ag85
aS'EX_cpd00182_e'
p2597
aS'DM_cpd00119_c'
p2598
ag400
aVrxn12778_c
p2599
aVrxn05318_c
p2600
aVrxn00134_c
p2601
aS'DM_cpd16736_c'
p2602
atp2603
bsg42
Nstp2604
Rp2605
a(lp2606
g26
(g27
(I0
tp2607
g29
tp2608
Rp2609
(I1
(I1
I44
tp2610
g102
I00
S'nz\xd3\x9b\xdetx\xc0qz\xd3\x9b\xdetx@oz\xd3\x9b\xdetx@oz\xd3\x9b\xdet\x88@oz\xd3\x9b\xdetx@nz\xd3\x9b\xdetx@9\x16\xb2\x90\x85,k\xc0oz\xd3\x9b\xdet\x88@\xc4B\x16\xb2\x90\x05\x83@oz\xd3\x9b\xdetx@\xad\xde\xf4\xa67\xbde@2\x16\xb2\x90\x85,k@oz\xd3\x9b\xdetx@sz\xd3\x9b\xdet\x88\xc0\xad\xde\xf4\xa67\xbde\xc0\xc4B\x16\xb2\x90\x05\x83@oz\xd3\x9b\xdetx@oz\xd3\x9b\xdetx@\x00\x00\x00\x00\x00@\x8f@\x00\x00\x00\x00\x00@\x8f\xc0oz\xd3\x9b\xdetx@\xdb\xf4\xa67\xbd\xa9\x81@sz\xd3\x9b\xdetx\xc09\x16\xb2\x90\x85,k@\xff\xff\xff\xff\xff?\x8f@oz\xd3\x9b\xdetx@mz\xd3\x9b\xdetx@9\x16\xb2\x90\x85,k\xc09\x16\xb2\x90\x85,k@\xc4B\x16\xb2\x90\x05s@rz\xd3\x9b\xdet\x88\xc0\xf6\xff\xff\xff\xff?\x8f@oz\xd3\x9b\xdet\x88@9\x16\xb2\x90\x85,k@oz\xd3\x9b\xdet\x88\xc02\x16\xb2\x90\x85,k\xc0\xc5B\x16\xb2\x90\x05s\xc0qz\xd3\x9b\xdetx\xc0oz\xd3\x9b\xdetx@qz\xd3\x9b\xdetx@oz\xd3\x9b\xdetx@qz\xd3\x9b\xdetx@qz\xd3\x9b\xdetx@oz\xd3\x9b\xdetx@'
p2611
tp2612
ba(lp2613
g22
(g23
(dp2614
g25
g26
(g27
(I0
tp2615
g29
tp2616
Rp2617
(I1
(I1
tp2618
g36
I00
(lp2619
g40
atp2620
bsg42
Nstp2621
Rp2622
a(dp2623
g118
(dp2624
g120
g2571
sg121
(lp2625
(dp2626
g124
g125
(I0
I1
I1
tp2627
Rp2628
sg128
g2609
sasstp2629
bsbsg130
(lp2630
(lp2631
S'rxn00097_c'
p2632
aF0.05310451795135983
aa(lp2633
S'rxn05318_c'
p2634
aF0.0
aa(lp2635
S'rxn00134_c'
p2636
aF0.0
aasg138
(lp2637
g2602
asg140
g141
(g102
S'\x7fG)\xf5W \x92?'
p2638
tp2639
Rp2640
sg145
g146
((lp2641
g400
ag2599
ag2600
ag2601
ag2602
atp2642
Rp2643
sg150
(lp2644
(lp2645
g2587
aF0.3633425186595832
aa(lp2646
g387
aF0.7663259047380242
aa(lp2647
g2588
aF0.7428348327438639
aa(lp2648
g2589
aF0.849213204979383
aa(lp2649
g2590
aF0.7251105042918488
aa(lp2650
g54
aF0.22287311094173126
aa(lp2651
g55
aF0.6537482407428824
aa(lp2652
g58
aF0.9930266647154689
aa(lp2653
g2591
aF0.6351729057902087
aa(lp2654
g59
aF0.15505323034526253
aa(lp2655
g60
aF0.16711061359245097
aa(lp2656
g2592
aF0.7298860358404998
aa(lp2657
g257
aF0.4759403048212528
aa(lp2658
g62
aF0.15505323034526253
aa(lp2659
g63
aF0.1179088482915993
aa(lp2660
g1384
aF0.6839770327156126
aa(lp2661
g2593
aF0.9681228472516566
aa(lp2662
g258
aF0.7412135331479476
aa(lp2663
g259
aF0.35684399784346865
aa(lp2664
g2594
aF0.7251105042918488
aa(lp2665
g261
aF0.6189340413235531
aa(lp2666
g65
aF0.7336237270826534
aa(lp2667
g66
aF0.6371698314027111
aa(lp2668
g262
aF0.47666515237895574
aa(lp2669
g2595
aF0.6351729057902087
aa(lp2670
g2596
aF0.7267848858075653
aa(lp2671
g72
aF0.4790450388155571
aa(lp2672
g396
aF0.608175981967571
aa(lp2673
g265
aF0.6581562407755815
aasg178
F391.30434782608745
sg179
(lp2674
(lp2675
g2587
aF0.3633425186595832
aa(lp2676
g387
aF0.7663259047380242
aa(lp2677
g2588
aF0.7428348327438639
aa(lp2678
g2589
aF0.849213204979383
aa(lp2679
g2590
aF0.7251105042918488
aa(lp2680
g54
aF0.22287311094173126
aa(lp2681
g55
aF0.6537482407428824
aa(lp2682
g58
aF0.9930266647154689
aa(lp2683
g2591
aF0.6351729057902087
aa(lp2684
g59
aF0.15505323034526253
aa(lp2685
g60
aF0.16711061359245097
aa(lp2686
g2592
aF0.7298860358404998
aa(lp2687
g257
aF0.4759403048212528
aa(lp2688
g62
aF0.15505323034526253
aa(lp2689
g63
aF0.1179088482915993
aa(lp2690
g1384
aF0.6839770327156126
aa(lp2691
g2593
aF0.9681228472516566
aa(lp2692
g258
aF0.7412135331479476
aa(lp2693
g259
aF0.35684399784346865
aa(lp2694
g2594
aF0.7251105042918488
aa(lp2695
g261
aF0.6189340413235531
aa(lp2696
g65
aF0.7336237270826534
aa(lp2697
g66
aF0.6371698314027111
aa(lp2698
g262
aF0.47666515237895574
aa(lp2699
g2595
aF0.6351729057902087
aa(lp2700
g2596
aF0.7267848858075653
aa(lp2701
g72
aF0.4790450388155571
aa(lp2702
g396
aF0.608175981967571
aa(lp2703
g265
aF0.6581562407755815
aa(lp2704
S'rxn00097_c'
p2705
aF0.05310451795135983
aa(lp2706
S'rxn05318_c'
p2707
aF0.0
aa(lp2708
S'rxn00134_c'
p2709
aF0.0
aasg213
g141
(g102
S'\x1cJ\x0c\xa5\xcd\xda\xe0?'
p2710
tp2711
Rp2712
sg217
g218
sg219
g141
(g102
S'z\x031A)\x8a\xe2?'
p2713
tp2714
Rp2715
sg223
S'L-Histidine'
p2716
sg225
g226
sg227
g146
((lp2717
S'cpd16736_c'
p2718
atp2719
Rp2720
ssS'220668.9:0.0.11'
p2721
(dp2722
g3
g4
sg5
F0.0
sg6
g7
(g8
g9
Ntp2723
Rp2724
(dp2725
g13
g14
sg15
g16
sg17
g7
(g18
g9
Ntp2726
Rp2727
((lp2728
g22
(g23
(dp2729
g25
g26
(g27
(I0
tp2730
g29
tp2731
Rp2732
(I1
(I1
tp2733
g36
I00
(lp2734
g40
atp2735
bsg42
Nstp2736
Rp2737
ag22
(g23
(dp2738
g25
g26
(g27
(I0
tp2739
g29
tp2740
Rp2741
(I1
(I31
tp2742
g36
I00
(lp2743
g52
ag255
ag54
ag55
ag58
ag60
ag63
ag1384
ag258
ag259
ag64
ag261
ag65
ag66
ag262
ag72
ag396
ag73
ag266
ag79
ag80
ag81
ag82
ag84
ag85
ag267
ag553
aS'DM_cpd00053_c'
p2744
ag556
ag562
ag558
atp2745
bsg42
Nstp2746
Rp2747
a(lp2748
g26
(g27
(I0
tp2749
g29
tp2750
Rp2751
(I1
(I1
I31
tp2752
g102
I00
S'\x0f\x00\x00\x00\x00@\x8f@\xccq\x1c\xc7q\\q@\x7f\x1c\xc7q\x1c\xc7k\xc0\x0b\x00\x00\x00\x00@\x8f@\x82\x1c\xc7q\x1c\xc7k@\x7f\x1c\xc7q\x1c\xc7k@\x82\x1c\xc7q\x1c\xc7k@\x0e\x00\x00\x00\x00@\x7f@~\x1c\xc7q\x1c\xc7k@~\x1c\xc7q\x1c\xc7k\xc0\xccq\x1c\xc7q\\q\xc0\xd3q\x1c\xc7q\\q@\x0b\x00\x00\x00\x00@\x7f\xc0~\x1c\xc7q\x1c\xc7k@~\x1c\xc7q\x1c\xc7k@\x7f\x1c\xc7q\x1c\xc7k\xc0}\x1c\xc7q\x1c\xc7k@\x81\x1c\xc7q\x1c\xc7[@\x0b\x00\x00\x00\x00@\x7f\xc0\xd6q\x1c\xc7q\\q\xc0\x0f\x00\x00\x00\x00@\x8f@\x7f\x1c\xc7q\x1c\xc7k@\x0b\x00\x00\x00\x00@\x8f\xc0\x7f\x1c\xc7q\x1c\xc7k\xc0\x83\x1c\xc7q\x1c\xc7[\xc0\x0b\x00\x00\x00\x00@\x7f@\r\x00\x00\x00\x00@\x7f\xc0\x0e\x00\x00\x00\x00@\x7f@\r\x00\x00\x00\x00@\x7f@\r\x00\x00\x00\x00@\x7f@\r\x00\x00\x00\x00@\x7f@'
p2753
tp2754
ba(lp2755
g22
(g23
(dp2756
g25
g26
(g27
(I0
tp2757
g29
tp2758
Rp2759
(I1
(I1
tp2760
g36
I00
(lp2761
g40
atp2762
bsg42
Nstp2763
Rp2764
a(dp2765
g118
(dp2766
g120
g2728
sg121
(lp2767
(dp2768
g124
g125
(I0
I1
I1
tp2769
Rp2770
sg128
g2751
sasstp2771
bsbsg130
(lp2772
(lp2773
S'rxn05211_c'
p2774
aF0.0
aa(lp2775
S'rxn00973_c'
p2776
aF0.0
aa(lp2777
S'rxn00505_c'
p2778
aF0.0
aasg138
(lp2779
sg140
g141
(g102
S'\x00\x00\x00\x00\x00\x00\x00\x00'
p2780
tp2781
Rp2782
sg145
g146
((lp2783
g556
ag562
ag558
atp2784
Rp2785
sg150
(lp2786
(lp2787
g255
aF0.7484405309001277
aa(lp2788
g54
aF0.22287311094173126
aa(lp2789
g55
aF0.6537482407428824
aa(lp2790
g58
aF0.9930266647154689
aa(lp2791
g60
aF0.16711061359245097
aa(lp2792
g63
aF0.1179088482915993
aa(lp2793
g1384
aF0.6839770327156126
aa(lp2794
g258
aF0.7412135331479476
aa(lp2795
g259
aF0.35684399784346865
aa(lp2796
g64
aF0.7484405309001277
aa(lp2797
g261
aF0.6189340413235531
aa(lp2798
g65
aF0.7336237270826534
aa(lp2799
g66
aF0.6371698314027111
aa(lp2800
g262
aF0.47666515237895574
aa(lp2801
g72
aF0.4790450388155571
aa(lp2802
g396
aF0.608175981967571
aasg178
F500.0
sg179
(lp2803
(lp2804
g255
aF0.7484405309001277
aa(lp2805
g54
aF0.22287311094173126
aa(lp2806
g55
aF0.6537482407428824
aa(lp2807
g58
aF0.9930266647154689
aa(lp2808
g60
aF0.16711061359245097
aa(lp2809
g63
aF0.1179088482915993
aa(lp2810
g1384
aF0.6839770327156126
aa(lp2811
g258
aF0.7412135331479476
aa(lp2812
g259
aF0.35684399784346865
aa(lp2813
g64
aF0.7484405309001277
aa(lp2814
g261
aF0.6189340413235531
aa(lp2815
g65
aF0.7336237270826534
aa(lp2816
g66
aF0.6371698314027111
aa(lp2817
g262
aF0.47666515237895574
aa(lp2818
g72
aF0.4790450388155571
aa(lp2819
g396
aF0.608175981967571
aa(lp2820
S'rxn05211_c'
p2821
aF0.0
aa(lp2822
S'rxn00973_c'
p2823
aF0.0
aa(lp2824
S'rxn00505_c'
p2825
aF0.0
aasg213
g141
(g102
S'\xb6z\xcb@\xcdE\xde?'
p2826
tp2827
Rp2828
sg217
g218
sg219
g141
(g102
S'\xdc\xd0x\xdeq\xf9\xe1?'
p2829
tp2830
Rp2831
sg223
S'L-Glutamine'
p2832
sg225
g226
sg227
g146
((lp2833
S'cpd00260_c'
p2834
atp2835
Rp2836
ssS'220668.9:0.0.10'
p2837
(dp2838
g3
g4
sg5
F0.0
sg6
g7
(g8
g9
Ntp2839
Rp2840
(dp2841
g13
g14
sg15
g16
sg17
g7
(g18
g9
Ntp2842
Rp2843
((lp2844
g22
(g23
(dp2845
g25
g26
(g27
(I0
tp2846
g29
tp2847
Rp2848
(I1
(I1
tp2849
g36
I00
(lp2850
g40
atp2851
bsg42
Nstp2852
Rp2853
ag22
(g23
(dp2854
g25
g26
(g27
(I0
tp2855
g29
tp2856
Rp2857
(I1
(I18
tp2858
g36
I00
(lp2859
g52
ag255
ag55
ag63
aS'rxn00500_c'
p2860
ag64
ag65
aS'rxn08783_c'
p2861
ag266
ag79
ag80
ag82
ag267
ag553
aS'DM_cpd00023_c'
p2862
ag1291
ag558
ag562
atp2863
bsg42
Nstp2864
Rp2865
a(lp2866
g26
(g27
(I0
tp2867
g29
tp2868
Rp2869
(I1
(I1
I18
tp2870
g102
I00
S'\x00\x00\x00\x00\x00@\x8f@\x00\x00\x00\x00\x00@\x8f@\x00\x00\x00\x00\x00@\x8f@\xc3m\xdb\xb6m\xdbq\xc0\xc3m\xdb\xb6m\xdbq\xc0\xfc\xff\xff\xff\xff?\x8f\xc0\x07\x00\x00\x00\x00@\x8f\xc0\xc3m\xdb\xb6m\xdbq@\r\x00\x00\x00\x00@\x8f\xc0\x15\x00\x00\x00\x00@\x8f\xc0\x00\x00\x00\x00\x00@\x8f@\x00\x00\x00\x00\x00@\x8f\xc0\r\x00\x00\x00\x00@\x8f@\x08\x00\x00\x00\x00@\x8f\xc0\x07\x00\x00\x00\x00@\x8f@\x08\x00\x00\x00\x00@\x8f\xc0\x08\x00\x00\x00\x00@\x8f@\x08\x00\x00\x00\x00@\x8f@'
p2871
tp2872
ba(lp2873
g22
(g23
(dp2874
g25
g26
(g27
(I0
tp2875
g29
tp2876
Rp2877
(I1
(I1
tp2878
g36
I00
(lp2879
g40
atp2880
bsg42
Nstp2881
Rp2882
a(dp2883
g118
(dp2884
g120
g2844
sg121
(lp2885
(dp2886
g124
g125
(I0
I1
I1
tp2887
Rp2888
sg128
g2869
sasstp2889
bsbsg130
(lp2890
(lp2891
S'rxn00505_c'
p2892
aF0.0
aa(lp2893
S'rxn00973_c'
p2894
aF0.0
aasg138
(lp2895
sg140
g141
(g102
S'\x00\x00\x00\x00\x00\x00\x00\x00'
p2896
tp2897
Rp2898
sg145
g146
((lp2899
g1291
ag558
ag562
atp2900
Rp2901
sg150
(lp2902
(lp2903
g255
aF0.7484405309001277
aa(lp2904
g55
aF0.6537482407428824
aa(lp2905
g63
aF0.1179088482915993
aa(lp2906
g2860
aF0.5641688594544652
aa(lp2907
g64
aF0.7484405309001277
aa(lp2908
g65
aF0.7336237270826534
aa(lp2909
g2861
aF0.5641688594544652
aasg178
F999.9999999999999
sg179
(lp2910
(lp2911
g255
aF0.7484405309001277
aa(lp2912
g55
aF0.6537482407428824
aa(lp2913
g63
aF0.1179088482915993
aa(lp2914
g2860
aF0.5641688594544652
aa(lp2915
g64
aF0.7484405309001277
aa(lp2916
g65
aF0.7336237270826534
aa(lp2917
g2861
aF0.5641688594544652
aa(lp2918
S'rxn00505_c'
p2919
aF0.0
aa(lp2920
S'rxn00973_c'
p2921
aF0.0
aasg213
g141
(g102
S'L\xbd\xcaTX_\xdd?'
p2922
tp2923
Rp2924
sg217
g218
sg219
g141
(g102
S'C\x9e\x14[\xdd\xe1\xe2?'
p2925
tp2926
Rp2927
sg223
S'L-Glutamate'
p2928
sg225
g226
sg227
g146
((lp2929
S'cpd00260_c'
p2930
atp2931
Rp2932
ssS'220668.9:0.0.22'
p2933
(dp2934
g3
g4
sg5
F0.0
sg6
g7
(g8
g9
Ntp2935
Rp2936
(dp2937
g13
g14
sg15
g16
sg17
g7
(g18
g9
Ntp2938
Rp2939
((lp2940
g22
(g23
(dp2941
g25
g26
(g27
(I0
tp2942
g29
tp2943
Rp2944
(I1
(I1
tp2945
g36
I00
(lp2946
g40
atp2947
bsg42
Nstp2948
Rp2949
ag22
(g23
(dp2950
g25
g26
(g27
(I0
tp2951
g29
tp2952
Rp2953
(I1
(I50
tp2954
g36
I00
(lp2955
g254
ag387
ag2074
ag695
ag696
ag51
ag52
aS'rxn00292_c'
p2956
ag53
ag1092
aS'rxn01269_c'
p2957
ag60
aS'rxn01484_c'
p2958
ag61
aS'rxn00527_c'
p2959
aS'rxn01951_c'
p2960
ag390
ag64
ag260
ag1385
ag261
ag65
aS'rxn01506_c'
p2961
ag1387
ag1756
ag263
ag68
ag70
ag71
aS'rxn03638_c'
p2962
ag701
ag73
aS'rxn01485_c'
p2963
ag74
ag702
ag78
ag266
aS'rxn00117_c'
p2964
aS'rxn00293_c'
p2965
ag79
ag80
ag84
ag85
ag267
ag1758
aS'DM_cpd00069_c'
p2966
ag1760
ag269
ag1762
ag1763
atp2967
bsg42
Nstp2968
Rp2969
a(lp2970
g26
(g27
(I0
tp2971
g29
tp2972
Rp2973
(I1
(I1
I50
tp2974
g102
I00
S'\x02\x00\x00\x00\x00@\x7f@\xa1\xff\xff\xff\xff?_@\x0e\x00\x00\x00\x00@_@\xff\xff\xff\xff\xff?\x8f\xc0\xf8\xff\xff\xff\xff?\x7f@\x07\x00\x00\x00\x00@\x7f@\x00\x00\x00\x00\x00@\x8f@\xf6\xff\xff\xff\xff?_@\x0c\x00\x00\x00\x00@\x7f@\xfd\xff\xff\xff\xff?\x7f\xc0\xff\xff\xff\xff\xff?\x8f@\xed\xff\xff\xff\xff?\x7f@\x0f\x00\x00\x00\x00@_@\x08\x00\x00\x00\x00@\x7f\xc0\xff\xff\xff\xff\xff?\x8f\xc0\xf6\xff\xff\xff\xff?_@\r\x00\x00\x00\x00@_\xc0\x00\x00\x00\x00\x00@\x8f\xc0\xfe\xff\xff\xff\xff?\x8f\xc0\x00\x00\x00\x00\x00@\x8f@\xd6\xff\xff\xff\xff?_\xc0\x00\x00\x00\x00\x00@\x8f\xc0\x0f\x00\x00\x00\x00@_\xc0\xfa\xff\xff\xff\xff?\x8f\xc0\xef\xff\xff\xff\xff?\x7f@\xff\xff\xff\xff\xff?\x8f@\xf3\xff\xff\xff\xff?\x7f\xc0\xec\xff\xff\xff\xff?\x7f@\xec\xff\xff\xff\xff?\x7f@\xbb\xff\xff\xff\xff?_@\xf4\xff\xff\xff\xff?\x7f@\x0b\x00\x00\x00\x00@\x7f@\xba\xff\xff\xff\xff?_\xc0\x0c\x00\x00\x00\x00@\x7f@\xf8\xff\xff\xff\xff?\x7f@\x0b\x00\x00\x00\x00@\x7f@\x00\x00\x00\x00\x00@\x8f\xc0\xf5\xff\xff\xff\xff?_@\xbb\xff\xff\xff\xff?_@\x0b\x00\x00\x00\x00@\x8f\xc0\x00\x00\x00\x00\x00@\x8f@\xed\xff\xff\xff\xff?\x7f\xc0\x0c\x00\x00\x00\x00@\x7f\xc0\x00\x00\x00\x00\x00@\x8f@\xff\xff\xff\xff\xff?\x8f\xc0\xff\xff\xff\xff\xff?\x8f@\xff\xff\xff\xff\xff?\x8f@\x02\x00\x00\x00\x00@\x7f@\xff\xff\xff\xff\xff?\x8f\xc0\xff\xff\xff\xff\xff?\x8f@'
p2975
tp2976
ba(lp2977
g22
(g23
(dp2978
g25
g26
(g27
(I0
tp2979
g29
tp2980
Rp2981
(I1
(I1
tp2982
g36
I00
(lp2983
g40
atp2984
bsg42
Nstp2985
Rp2986
a(dp2987
g118
(dp2988
g120
g2940
sg121
(lp2989
(dp2990
g124
g125
(I0
I1
I1
tp2991
Rp2992
sg128
g2973
sasstp2993
bsbsg130
(lp2994
(lp2995
S'rxn00786_c'
p2996
aF0.025276721182982728
aa(lp2997
S'rxn01256_c'
p2998
aF0.06625844264549104
aasg138
(lp2999
sg140
g141
(g102
S'\xbc\xc9\x137\xd9n\xa7?'
p3000
tp3001
Rp3002
sg145
g146
((lp3003
g1760
ag269
ag1762
ag1763
atp3004
Rp3005
sg150
(lp3006
(lp3007
g254
aF0.7297578149014129
aa(lp3008
g387
aF0.7663259047380242
aa(lp3009
g2074
aF0.7081615561511267
aa(lp3010
g695
aF0.7321378826037916
aa(lp3011
g696
aF0.7573252964069241
aa(lp3012
g51
aF0.5191220214505604
aa(lp3013
g2956
aF0.6964563022990179
aa(lp3014
g53
aF0.22013316862116666
aa(lp3015
g1092
aF0.7165696798161908
aa(lp3016
g2957
aF0.4626358896266621
aa(lp3017
g60
aF0.16711061359245097
aa(lp3018
g2958
aF0.7498778440733911
aa(lp3019
g61
aF0.5916669155435752
aa(lp3020
g2959
aF0.8692059277500511
aa(lp3021
g2960
aF0.7201629774929021
aa(lp3022
g390
aF0.7297596125397976
aa(lp3023
g64
aF0.7484405309001277
aa(lp3024
g260
aF0.2510839990368638
aa(lp3025
g1385
aF0.7170985764696824
aa(lp3026
g261
aF0.6189340413235531
aa(lp3027
g65
aF0.7336237270826534
aa(lp3028
g2961
aF0.7977258364162746
aa(lp3029
g1387
aF0.7170985764696824
aa(lp3030
g1756
aF0.7165696798161908
aa(lp3031
g263
aF0.5819488983073209
aa(lp3032
g68
aF0.7256203031125679
aa(lp3033
g70
aF0.4759403048212528
aa(lp3034
g71
aF0.13632578864588127
aa(lp3035
g2962
aF0.5927102615427416
aa(lp3036
g701
aF0.33407902943193785
aa(lp3037
g2963
aF0.7085134039272568
aa(lp3038
g74
aF0.2701245309079547
aa(lp3039
g702
aF0.39737340535002535
aa(lp3040
g78
aF0.5971597609433806
aa(lp3041
g2964
aF0.7348904078331049
aa(lp3042
g2965
aF0.5927102615427416
aasg178
F1000.0000000000031
sg179
(lp3043
(lp3044
g254
aF0.7297578149014129
aa(lp3045
g387
aF0.7663259047380242
aa(lp3046
g2074
aF0.7081615561511267
aa(lp3047
g695
aF0.7321378826037916
aa(lp3048
g696
aF0.7573252964069241
aa(lp3049
g51
aF0.5191220214505604
aa(lp3050
g2956
aF0.6964563022990179
aa(lp3051
g53
aF0.22013316862116666
aa(lp3052
g1092
aF0.7165696798161908
aa(lp3053
g2957
aF0.4626358896266621
aa(lp3054
g60
aF0.16711061359245097
aa(lp3055
g2958
aF0.7498778440733911
aa(lp3056
g61
aF0.5916669155435752
aa(lp3057
g2959
aF0.8692059277500511
aa(lp3058
g2960
aF0.7201629774929021
aa(lp3059
g390
aF0.7297596125397976
aa(lp3060
g64
aF0.7484405309001277
aa(lp3061
g260
aF0.2510839990368638
aa(lp3062
g1385
aF0.7170985764696824
aa(lp3063
g261
aF0.6189340413235531
aa(lp3064
g65
aF0.7336237270826534
aa(lp3065
g2961
aF0.7977258364162746
aa(lp3066
g1387
aF0.7170985764696824
aa(lp3067
g1756
aF0.7165696798161908
aa(lp3068
g263
aF0.5819488983073209
aa(lp3069
g68
aF0.7256203031125679
aa(lp3070
g70
aF0.4759403048212528
aa(lp3071
g71
aF0.13632578864588127
aa(lp3072
g2962
aF0.5927102615427416
aa(lp3073
g701
aF0.33407902943193785
aa(lp3074
g2963
aF0.7085134039272568
aa(lp3075
g74
aF0.2701245309079547
aa(lp3076
g702
aF0.39737340535002535
aa(lp3077
g78
aF0.5971597609433806
aa(lp3078
g2964
aF0.7348904078331049
aa(lp3079
g2965
aF0.5927102615427416
aa(lp3080
S'rxn00786_c'
p3081
aF0.025276721182982728
aa(lp3082
S'rxn01256_c'
p3083
aF0.06625844264549104
aasg213
g141
(g102
S'\x90\t\x81\x02\xdf@\xe2?'
p3084
tp3085
Rp3086
sg217
g218
sg219
g141
(g102
S'\xba\x06\xc9O\xa5/\xe3?'
p3087
tp3088
Rp3089
sg223
S'L-Tyrosine'
p3090
sg225
g226
sg227
g146
((lp3091
tp3092
Rp3093
ssS'220668.9:0.0.23'
p3094
(dp3095
g3
g4
sg5
F0.0
sg6
g7
(g8
g9
Ntp3096
Rp3097
(dp3098
g13
g14
sg15
g16
sg17
g7
(g18
g9
Ntp3099
Rp3100
((lp3101
g22
(g23
(dp3102
g25
g26
(g27
(I0
tp3103
g29
tp3104
Rp3105
(I1
(I1
tp3106
g36
I00
(lp3107
g40
atp3108
bsg42
Nstp3109
Rp3110
ag22
(g23
(dp3111
g25
g26
(g27
(I0
tp3112
g29
tp3113
Rp3114
(I1
(I35
tp3115
g36
I00
(lp3116
g254
ag695
ag696
ag51
ag52
ag697
ag255
ag55
ag698
ag57
ag60
ag699
ag61
ag64
ag260
ag261
ag65
ag263
ag700
ag68
ag70
ag71
ag701
ag702
ag266
ag79
ag80
ag82
ag84
ag267
aS'DM_cpd00156_c'
p3117
ag2242
ag2245
ag2248
ag705
atp3118
bsg42
Nstp3119
Rp3120
a(lp3121
g26
(g27
(I0
tp3122
g29
tp3123
Rp3124
(I1
(I1
I35
tp3125
g102
I00
S'\x02\x00\x00\x00\x00@\x7f@\x02\x00\x00\x00\x00@\x8f\xc0\x06\x00\x00\x00\x00p\x87@\xf6\xff\xff\xff\xff?o@\x04\x00\x00\x00\x00@\x8f@\x02\x00\x00\x00\x00@\x7f\xc0\xfc\xff\xff\xff\xffo\x87@\x00\x00\x00\x00\x00@\x7f@\x1d\x00\x00\x00\x00@o\xc0\xf6\xff\xff\xff\xff?o\xc0\xff\xff\xff\xff\xff?\x7f@\x1d\x00\x00\x00\x00@o@\xf4\xff\xff\xff\xff?o\xc0\x00\x00\x00\x00\x00@\x8f\xc0\x03\x00\x00\x00\x00@\x8f\xc0\xff\xff\xff\xff\xff?o\xc0\x02\x00\x00\x00\x00@\x7f\xc0\x03\x00\x00\x00\x00@\x8f@\x02\x00\x00\x00\x00@\x7f\xc0\x1a\x00\x00\x00\x00@o\xc0\xfd\xff\xff\xff\xff?\x7f@\x02\x00\x00\x00\x00@\x7f@\x19\x00\x00\x00\x00@o@\x06\x00\x00\x00\x00p\x87@\x01\x00\x00\x00\x00@\x7f\xc0\xf8\xff\xff\xff\xff?\x7f@\x04\x00\x00\x00\x00@\x8f@\x00\x00\x00\x00\x00@\x7f\xc0\xff\xff\xff\xff\xff?\x7f\xc0\x01\x00\x00\x00\x00@\x7f@\x02\x00\x00\x00\x00@\x7f@\x02\x00\x00\x00\x00@\x7f@\x02\x00\x00\x00\x00@\x7f\xc0\x02\x00\x00\x00\x00@\x7f@\x02\x00\x00\x00\x00@\x7f@'
p3126
tp3127
ba(lp3128
g22
(g23
(dp3129
g25
g26
(g27
(I0
tp3130
g29
tp3131
Rp3132
(I1
(I1
tp3133
g36
I00
(lp3134
g40
atp3135
bsg42
Nstp3136
Rp3137
a(dp3138
g118
(dp3139
g120
g3101
sg121
(lp3140
(dp3141
g124
g125
(I0
I1
I1
tp3142
Rp3143
sg128
g3124
sasstp3144
bsbsg130
(lp3145
(lp3146
S'rxn00898_c'
p3147
aF0.0
aa(lp3148
S'rxn00003_c'
p3149
aF0.0
aa(lp3150
S'rxn02186_c'
p3151
aF0.0
aa(lp3152
S'rxn01870_c'
p3153
aF0.025276721182982728
aasg138
(lp3154
sg140
g141
(g102
S'<\xf7R\x0b$\xe2y?'
p3155
tp3156
Rp3157
sg145
g146
((lp3158
g2242
ag2245
ag2248
ag705
atp3159
Rp3160
sg150
(lp3161
(lp3162
g254
aF0.7297578149014129
aa(lp3163
g695
aF0.7321378826037916
aa(lp3164
g696
aF0.7573252964069241
aa(lp3165
g51
aF0.5191220214505604
aa(lp3166
g697
aF0.15888293237286769
aa(lp3167
g255
aF0.7484405309001277
aa(lp3168
g55
aF0.6537482407428824
aa(lp3169
g698
aF0.7393325875973646
aa(lp3170
g57
aF0.24052218400619058
aa(lp3171
g60
aF0.16711061359245097
aa(lp3172
g699
aF0.7393325875973646
aa(lp3173
g61
aF0.5916669155435752
aa(lp3174
g64
aF0.7484405309001277
aa(lp3175
g260
aF0.2510839990368638
aa(lp3176
g261
aF0.6189340413235531
aa(lp3177
g65
aF0.7336237270826534
aa(lp3178
g263
aF0.5819488983073209
aa(lp3179
g700
aF0.8057022139688257
aa(lp3180
g68
aF0.7256203031125679
aa(lp3181
g70
aF0.4759403048212528
aa(lp3182
g71
aF0.13632578864588127
aa(lp3183
g701
aF0.33407902943193785
aa(lp3184
g702
aF0.39737340535002535
aasg178
F499.9999999999999
sg179
(lp3185
(lp3186
g254
aF0.7297578149014129
aa(lp3187
g695
aF0.7321378826037916
aa(lp3188
g696
aF0.7573252964069241
aa(lp3189
g51
aF0.5191220214505604
aa(lp3190
g697
aF0.15888293237286769
aa(lp3191
g255
aF0.7484405309001277
aa(lp3192
g55
aF0.6537482407428824
aa(lp3193
g698
aF0.7393325875973646
aa(lp3194
g57
aF0.24052218400619058
aa(lp3195
g60
aF0.16711061359245097
aa(lp3196
g699
aF0.7393325875973646
aa(lp3197
g61
aF0.5916669155435752
aa(lp3198
g64
aF0.7484405309001277
aa(lp3199
g260
aF0.2510839990368638
aa(lp3200
g261
aF0.6189340413235531
aa(lp3201
g65
aF0.7336237270826534
aa(lp3202
g263
aF0.5819488983073209
aa(lp3203
g700
aF0.8057022139688257
aa(lp3204
g68
aF0.7256203031125679
aa(lp3205
g70
aF0.4759403048212528
aa(lp3206
g71
aF0.13632578864588127
aa(lp3207
g701
aF0.33407902943193785
aa(lp3208
g702
aF0.39737340535002535
aa(lp3209
S'rxn00898_c'
p3210
aF0.0
aa(lp3211
S'rxn00003_c'
p3212
aF0.0
aa(lp3213
S'rxn02186_c'
p3214
aF0.0
aa(lp3215
S'rxn01870_c'
p3216
aF0.025276721182982728
aasg213
g141
(g102
S'h\x0b4\xd6\xfb\xe4\xdd?'
p3217
tp3218
Rp3219
sg217
g218
sg219
g141
(g102
S'\xec\x9b\x1a?\xf7\x82\xe1?'
p3220
tp3221
Rp3222
sg223
S'L-Valine'
p3223
sg225
g226
sg227
g146
((lp3224
S'cpd02498_c'
p3225
atp3226
Rp3227
ssS'220668.9:0.0.20'
p3228
(dp3229
g3
g4
sg5
F0.0
sg6
g7
(g8
g9
Ntp3230
Rp3231
(dp3232
g13
g14
sg15
g16
sg17
g7
(g18
g9
Ntp3233
Rp3234
((lp3235
g22
(g23
(dp3236
g25
g26
(g27
(I0
tp3237
g29
tp3238
Rp3239
(I1
(I1
tp3240
g36
I00
(lp3241
g40
atp3242
bsg42
Nstp3243
Rp3244
ag22
(g23
(dp3245
g25
g26
(g27
(I0
tp3246
g29
tp3247
Rp3248
(I1
(I36
tp3249
g36
I00
(lp3250
g1091
ag51
ag54
ag55
ag256
ag1092
ag1093
ag57
ag60
ag257
ag2429
ag61
ag258
ag259
ag260
ag261
ag65
ag66
ag67
ag2430
ag262
ag263
ag264
ag72
ag396
ag265
ag75
ag266
ag79
ag81
ag82
ag84
ag267
aS'DM_cpd00161_c'
p3251
ag270
ag91
atp3252
bsg42
Nstp3253
Rp3254
a(lp3255
g26
(g27
(I0
tp3256
g29
tp3257
Rp3258
(I1
(I1
I36
tp3259
g102
I00
S'VUUUU\xd5t@VUUUU\xd5t@VUUUU\xd5\x84\xc0VUUUU\xd5t@UUUUU\xd5d@UUUUU\xd5t\xc0UUUUU\xd5t@UUUUU\xd5d\xc0\xac\xaa\xaa\xaa\xaa\n\x8a@\xef\xff\xff\xff\xff?_\xc0UUUUU\xd5t@VUUUU\xd5t\xc0\xa9\xaa\xaa\xaa\xaa\xf2\x8d@\xa9\xaa\xaa\xaa\xaa\xf2\x8d\xc0VUUUU\xd5t\xc0\xab\xaa\xaa\xaa\xaa:r\xc0VUUUU\xd5t\xc0UUUUU\xd5\x84@UUUUU\xd5d\xc0UUUUU\xd5t@\xa9\xaa\xaa\xaa\xaa\xf2\x8d@WUUUU\xd5t@UUUUU\xd5t\xc0VUUUU\xd5\x84\xc0UUUUU\xd5\x84@\xef\xff\xff\xff\xff?_\xc0UUUUU\xd5d@VUUUU\xd5t@\x00\x00\x00\x00\x00@\x8f@VUUUU\xd5\x84@VUUUU\xd5t\xc0\xac\xaa\xaa\xaa\xaa\n\x8a\xc0VUUUU\xd5t\xc0UUUUU\xd5t@VUUUU\xd5t\xc0UUUUU\xd5d@'
p3260
tp3261
ba(lp3262
g22
(g23
(dp3263
g25
g26
(g27
(I0
tp3264
g29
tp3265
Rp3266
(I1
(I1
tp3267
g36
I00
(lp3268
g40
atp3269
bsg42
Nstp3270
Rp3271
a(dp3272
g118
(dp3273
g120
g3235
sg121
(lp3274
(dp3275
g124
g125
(I0
I1
I1
tp3276
Rp3277
sg128
g3258
sasstp3278
bsbsg130
(lp3279
(lp3280
S'rxn00251_c'
p3281
aF0.002793330585232272
aa(lp3282
S'rxn01334_c'
p3283
aF0.025276721182982728
aasg138
(lp3284
sg140
g141
(g102
S'\xe7\xb4]Ie\xbe\x8c?'
p3285
tp3286
Rp3287
sg145
g146
((lp3288
g270
ag91
atp3289
Rp3290
sg150
(lp3291
(lp3292
g1091
aF0.8333333333333334
aa(lp3293
g51
aF0.5191220214505604
aa(lp3294
g54
aF0.22287311094173126
aa(lp3295
g55
aF0.6537482407428824
aa(lp3296
g256
aF0.13632578864588127
aa(lp3297
g1092
aF0.7165696798161908
aa(lp3298
g1093
aF0.7367584023517918
aa(lp3299
g57
aF0.24052218400619058
aa(lp3300
g60
aF0.16711061359245097
aa(lp3301
g257
aF0.4759403048212528
aa(lp3302
g2429
aF0.7641693855295804
aa(lp3303
g61
aF0.5916669155435752
aa(lp3304
g258
aF0.7412135331479476
aa(lp3305
g259
aF0.35684399784346865
aa(lp3306
g260
aF0.2510839990368638
aa(lp3307
g261
aF0.6189340413235531
aa(lp3308
g65
aF0.7336237270826534
aa(lp3309
g66
aF0.6371698314027111
aa(lp3310
g67
aF0.8979633240378723
aa(lp3311
g2430
aF0.8038543133968207
aa(lp3312
g262
aF0.47666515237895574
aa(lp3313
g263
aF0.5819488983073209
aa(lp3314
g264
aF0.8692059277500511
aa(lp3315
g72
aF0.4790450388155571
aa(lp3316
g396
aF0.608175981967571
aa(lp3317
g265
aF0.6581562407755815
aa(lp3318
g75
aF0.7297578149014129
aasg178
F333.33333333333286
sg179
(lp3319
(lp3320
g1091
aF0.8333333333333334
aa(lp3321
g51
aF0.5191220214505604
aa(lp3322
g54
aF0.22287311094173126
aa(lp3323
g55
aF0.6537482407428824
aa(lp3324
g256
aF0.13632578864588127
aa(lp3325
g1092
aF0.7165696798161908
aa(lp3326
g1093
aF0.7367584023517918
aa(lp3327
g57
aF0.24052218400619058
aa(lp3328
g60
aF0.16711061359245097
aa(lp3329
g257
aF0.4759403048212528
aa(lp3330
g2429
aF0.7641693855295804
aa(lp3331
g61
aF0.5916669155435752
aa(lp3332
g258
aF0.7412135331479476
aa(lp3333
g259
aF0.35684399784346865
aa(lp3334
g260
aF0.2510839990368638
aa(lp3335
g261
aF0.6189340413235531
aa(lp3336
g65
aF0.7336237270826534
aa(lp3337
g66
aF0.6371698314027111
aa(lp3338
g67
aF0.8979633240378723
aa(lp3339
g2430
aF0.8038543133968207
aa(lp3340
g262
aF0.47666515237895574
aa(lp3341
g263
aF0.5819488983073209
aa(lp3342
g264
aF0.8692059277500511
aa(lp3343
g72
aF0.4790450388155571
aa(lp3344
g396
aF0.608175981967571
aa(lp3345
g265
aF0.6581562407755815
aa(lp3346
g75
aF0.7297578149014129
aa(lp3347
S'rxn00251_c'
p3348
aF0.002793330585232272
aa(lp3349
S'rxn01334_c'
p3350
aF0.025276721182982728
aasg213
g141
(g102
S'#<0W\xea"\xe1?'
p3351
tp3352
Rp3353
sg217
g218
sg219
g141
(g102
S'\xe7\xfeC\xfdZ_\xe2?'
p3354
tp3355
Rp3356
sg223
S'L-Threonine'
p3357
sg225
g226
sg227
g146
((lp3358
tp3359
Rp3360
ssS'220668.9:0.0.21'
p3361
(dp3362
g3
g4
sg5
F0.0
sg6
g7
(g8
g9
Ntp3363
Rp3364
(dp3365
g13
g14
sg15
g16
sg17
g7
(g18
g9
Ntp3366
Rp3367
((lp3368
g22
(g23
(dp3369
g25
g26
(g27
(I0
tp3370
g29
tp3371
Rp3372
(I1
(I1
tp3373
g36
I00
(lp3374
g40
atp3375
bsg42
Nstp3376
Rp3377
ag22
(g23
(dp3378
g25
g26
(g27
(I0
tp3379
g29
tp3380
Rp3381
(I1
(I56
tp3382
g36
I00
(lp3383
g387
ag695
ag51
ag52
ag53
aS'rxn00727_c'
p3384
ag54
ag55
ag256
ag59
ag60
ag2237
ag61
ag62
ag390
ag258
ag391
ag259
ag2238
ag64
ag261
aS'rxn02508_c'
p3385
ag392
ag65
ag66
ag67
aS'rxn00791_c'
p3386
ag262
ag69
ag70
ag394
ag72
ag396
aS'rxn02507_c'
p3387
aS'rxn01964_c'
p3388
ag76
ag77
ag266
ag79
ag80
ag81
ag82
ag84
ag2240
ag267
ag1758
aS'DM_cpd00065_c'
p3389
ag398
aVrxn13206_c
p3390
ag400
aVrxn09465_c
p3391
ag1762
ag401
aVrxn00770_c
p3392
ag833
ag402
atp3393
bsg42
Nstp3394
Rp3395
a(lp3396
g26
(g27
(I0
tp3397
g29
tp3398
Rp3399
(I1
(I1
I56
tp3400
g102
I00
S'\xd4^B{\t\xads@bB{\t\xed%w\xc0WUUUU\xd5t@\x00\x00\x00\x00\x00@\x8f@?{\t\xed%4`@WUUUU\xd5t@Lh/\xa1\xbd\x84r\xc0UUUUU\xd5t@\xdbKh/\xa1\xfd\x85@\x1eh/\xa1\xbd\x842@\x02\x00\x00\x00\x00@\x8f@cB{\t\xed%w\xc0VUUUU\xd5t\xc0\x1eh/\xa1\xbd\x842\xc0QUUUU\xd5d\xc0\x9f\xbd\x84\xf6\x12\xa2\x8b@YUUUU\xd5d\xc0\x9f\xbd\x84\xf6\x12\xa2\x8b\xc0cB{\t\xed%w\xc0>{\t\xed%4`\xc0A{\t\xed%\xd4o\xc0WUUUU\xd5t@QUUUU\xd5d@UUUUU\xd5t\xc0Lh/\xa1\xbd\x84r@UUUUU\xd5d\xc0WUUUU\xd5t@\x9f\xbd\x84\xf6\x12\xa2\x8b@TUUUU\xd5t@\x10\x13\xdaKh\xef\\@UUUUU\xd5d@Mh/\xa1\xbd\x84r\xc0\x11\xc7q\x1c\xc7\x91f@XUUUU\xd5t@XUUUU\xd5t@\x10\x13\xdaKh\xef\\@UUUUU\xd5t\xc0XUUUU\xd5t\xc0\xca^B{\t\xads@\x00\x00\x00\x00\x00@\x8f@Lh/\xa1\xbd\x84r@UUUUU\xd5t\xc0\x02\x00\x00\x00\x00@\x8f\xc0bB{\t\xed%w@XUUUU\xd5t@WUUUU\xd5t\xc0XUUUU\xd5t@YUUUU\xd5d\xc0WUUUU\xd5t\xc0\xd3^B{\t\xads@Hh/\xa1\xbd\x842\xc0WUUUU\xd5t\xc0Ah/\xa1\xbd\x842\xc0WUUUU\xd5t@VUUUU\xd5t@Ah/\xa1\xbd\x842@'
p3401
tp3402
ba(lp3403
g22
(g23
(dp3404
g25
g26
(g27
(I0
tp3405
g29
tp3406
Rp3407
(I1
(I1
tp3408
g36
I00
(lp3409
g40
atp3410
bsg42
Nstp3411
Rp3412
a(dp3413
g118
(dp3414
g120
g3368
sg121
(lp3415
(dp3416
g124
g125
(I0
I1
I1
tp3417
Rp3418
sg128
g3399
sasstp3419
bsbsg130
(lp3420
(lp3421
S'rxn00777_c'
p3422
aF0.7913776374220073
aa(lp3423
S'rxn00097_c'
p3424
aF0.05310451795135983
aa(lp3425
S'rxn00770_c'
p3426
aF0.014935742894659628
aa(lp3427
S'rxn00420_c'
p3428
aF0.005626397504920459
aasg138
(lp3429
g402
asg140
g141
(g102
S'\x04\xf5\xfd_q\xae\xcb?'
p3430
tp3431
Rp3432
sg145
g146
((lp3433
g398
ag3390
ag400
ag3391
ag1762
ag401
ag3392
ag833
ag402
atp3434
Rp3435
sg150
(lp3436
(lp3437
g387
aF0.7663259047380242
aa(lp3438
g695
aF0.7321378826037916
aa(lp3439
g51
aF0.5191220214505604
aa(lp3440
g53
aF0.22013316862116666
aa(lp3441
g3384
aF0.5709605935486968
aa(lp3442
g54
aF0.22287311094173126
aa(lp3443
g55
aF0.6537482407428824
aa(lp3444
g256
aF0.13632578864588127
aa(lp3445
g59
aF0.15505323034526253
aa(lp3446
g60
aF0.16711061359245097
aa(lp3447
g2237
aF0.4441389856444226
aa(lp3448
g61
aF0.5916669155435752
aa(lp3449
g62
aF0.15505323034526253
aa(lp3450
g390
aF0.7297596125397976
aa(lp3451
g258
aF0.7412135331479476
aa(lp3452
g391
aF0.7331256660930605
aa(lp3453
g259
aF0.35684399784346865
aa(lp3454
g2238
aF0.12691318020878972
aa(lp3455
g64
aF0.7484405309001277
aa(lp3456
g261
aF0.6189340413235531
aa(lp3457
g3385
aF0.7627959793327208
aa(lp3458
g392
aF0.7603672794410494
aa(lp3459
g65
aF0.7336237270826534
aa(lp3460
g66
aF0.6371698314027111
aa(lp3461
g67
aF0.8979633240378723
aa(lp3462
g3386
aF0.7221027222097307
aa(lp3463
g262
aF0.47666515237895574
aa(lp3464
g69
aF0.7156196405620668
aa(lp3465
g70
aF0.4759403048212528
aa(lp3466
g394
aF0.2340700358459846
aa(lp3467
g72
aF0.4790450388155571
aa(lp3468
g396
aF0.608175981967571
aa(lp3469
g3387
aF0.7037274945512434
aa(lp3470
g3388
aF0.7005721036344085
aa(lp3471
g76
aF0.608175981967571
aa(lp3472
g77
aF0.7767247721552878
aasg178
F333.3333333333316
sg179
(lp3473
(lp3474
g387
aF0.7663259047380242
aa(lp3475
g695
aF0.7321378826037916
aa(lp3476
g51
aF0.5191220214505604
aa(lp3477
g53
aF0.22013316862116666
aa(lp3478
g3384
aF0.5709605935486968
aa(lp3479
g54
aF0.22287311094173126
aa(lp3480
g55
aF0.6537482407428824
aa(lp3481
g256
aF0.13632578864588127
aa(lp3482
g59
aF0.15505323034526253
aa(lp3483
g60
aF0.16711061359245097
aa(lp3484
g2237
aF0.4441389856444226
aa(lp3485
g61
aF0.5916669155435752
aa(lp3486
g62
aF0.15505323034526253
aa(lp3487
g390
aF0.7297596125397976
aa(lp3488
g258
aF0.7412135331479476
aa(lp3489
g391
aF0.7331256660930605
aa(lp3490
g259
aF0.35684399784346865
aa(lp3491
g2238
aF0.12691318020878972
aa(lp3492
g64
aF0.7484405309001277
aa(lp3493
g261
aF0.6189340413235531
aa(lp3494
g3385
aF0.7627959793327208
aa(lp3495
g392
aF0.7603672794410494
aa(lp3496
g65
aF0.7336237270826534
aa(lp3497
g66
aF0.6371698314027111
aa(lp3498
g67
aF0.8979633240378723
aa(lp3499
g3386
aF0.7221027222097307
aa(lp3500
g262
aF0.47666515237895574
aa(lp3501
g69
aF0.7156196405620668
aa(lp3502
g70
aF0.4759403048212528
aa(lp3503
g394
aF0.2340700358459846
aa(lp3504
g72
aF0.4790450388155571
aa(lp3505
g396
aF0.608175981967571
aa(lp3506
g3387
aF0.7037274945512434
aa(lp3507
g3388
aF0.7005721036344085
aa(lp3508
g76
aF0.608175981967571
aa(lp3509
g77
aF0.7767247721552878
aa(lp3510
S'rxn00777_c'
p3511
aF0.7913776374220073
aa(lp3512
S'rxn00097_c'
p3513
aF0.05310451795135983
aa(lp3514
S'rxn00770_c'
p3515
aF0.014935742894659628
aa(lp3516
S'rxn00420_c'
p3517
aF0.005626397504920459
aasg213
g141
(g102
S'\xc6\x9c\xa2\\)p\xe0?'
p3518
tp3519
Rp3520
sg217
g218
sg219
g141
(g102
S')\xd9{\xb2\xe3~\xe1?'
p3521
tp3522
Rp3523
sg223
S'L-Tryptophan'
p3524
sg225
g226
sg227
g146
((lp3525
S'cpd15270_c'
p3526
aS'cpd15272_c'
p3527
atp3528
Rp3529
ss.